c__builtin__
set
p1
((lp2
Vcc
p3
aV0.0
p4
aVagent
p5
aVccomp
p6
aVprt
p7
aVmeta
p8
aVnsubjpass
p9
aVcsubj
p10
aVconj
p11
aVmark
p12
aVneg
p13
aVposs
p14
aVauxpass
p15
aVadvcl
p16
aVaux
p17
aVROOT
p18
aVprep
p19
aV<u>
p20
aVparataxis
p21
aVcase
p22
aVdobj
p23
aVnsubj
p24
aVnummod
p25
aVadvmod
p26
aVpunct
p27
aVquantmod
p28
aVacomp
p29
aVcompound
p30
aVpcomp
p31
aVrelcl
p32
aVnpadvmod
p33
aVxcomp
p34
aVattr
p35
aVdep
p36
aVappos
p37
aVdet
p38
aVnmod
p39
aVamod
p40
aVdative
p41
aVpobj
p42
aVexpl
p43
aVpredet
p44
aVpreconj
p45
aVoprd
p46
aVacl
p47
atRp48
.