c__builtin__
set
p1
((lp2
V
aVcc
p3
aV0.0
p4
aVagent
p5
aVccomp
p6
aVprt
p7
aVmeta
p8
aVnsubjpass
p9
aVcsubj
p10
aVconj
p11
aVamod
p12
aVdative
p13
aVneg
p14
aVcsubjpass
p15
aVposs
p16
aVauxpass
p17
aVadvcl
p18
aVaux
p19
aVROOT
p20
aVprep
p21
aV<u>
p22
aVparataxis
p23
aVxcomp
p24
aVnsubj
p25
aVnummod
p26
aVadvmod
p27
aVpunct
p28
aVquantmod
p29
aVacomp
p30
aVcompound
p31
aVpcomp
p32
aVintj
p33
aVrelcl
p34
aVnpadvmod
p35
aVcase
p36
aVattr
p37
aVdep
p38
aVappos
p39
aVdet
p40
aVnmod
p41
aVdobj
p42
aVmark
p43
aVpobj
p44
aVexpl
p45
aVpreconj
p46
aVoprd
p47
aVacl
p48
atRp49
.