c__builtin__
set
p1
((lp2
V
aVcc
p3
aV0.0
p4
aVagent
p5
aVccomp
p6
aVprt
p7
aVnsubjpass
p8
aVconj
p9
aVdobj
p10
aVdative
p11
aVneg
p12
aVposs
p13
aVauxpass
p14
aVadvcl
p15
aVaux
p16
aVROOT
p17
aVprep
p18
aV<u>
p19
aVparataxis
p20
aVxcomp
p21
aVnsubj
p22
aVnummod
p23
aVadvmod
p24
aVpunct
p25
aVquantmod
p26
aVacomp
p27
aVcompound
p28
aVpcomp
p29
aVrelcl
p30
aVnpadvmod
p31
aVcase
p32
aVattr
p33
aVdep
p34
aVappos
p35
aVdet
p36
aVnmod
p37
aVamod
p38
aVmark
p39
aVpobj
p40
aVexpl
p41
aVpreconj
p42
aVoprd
p43
aVacl
p44
atRp45
.