c__builtin__
set
p1
((lp2
Vcc
p3
aV0.0
p4
aVagent
p5
aVccomp
p6
aVprt
p7
aVnsubjpass
p8
aVcsubj
p9
aVconj
p10
aVdobj
p11
aVposs
p12
aVneg
p13
aVmark
p14
aVauxpass
p15
aVadvcl
p16
aVaux
p17
aVamod
p18
aVROOT
p19
aVprep
p20
aV<u>
p21
aVparataxis
p22
aVcase
p23
aVnsubj
p24
aVnummod
p25
aVadvmod
p26
aVpunct
p27
aVquantmod
p28
aVacomp
p29
aVcompound
p30
aVpcomp
p31
aVrelcl
p32
aVnpadvmod
p33
aVxcomp
p34
aVattr
p35
aVdep
p36
aVappos
p37
aVdet
p38
aVnmod
p39
aVoprd
p40
aVdative
p41
aVpobj
p42
aVpreconj
p43
aVacl
p44
atRp45
.