c__builtin__
set
p1
((lp2
Vcc
p3
aV0.0
p4
aVagent
p5
aVccomp
p6
aVprt
p7
aVmeta
p8
aVnsubjpass
p9
aVcsubj
p10
aVconj
p11
aVamod
p12
aVposs
p13
aVneg
p14
aVmark
p15
aVauxpass
p16
aVadvcl
p17
aVaux
p18
aVROOT
p19
aVprep
p20
aV<u>
p21
aVparataxis
p22
aVcase
p23
aVnsubj
p24
aVnummod
p25
aVadvmod
p26
aVpunct
p27
aVquantmod
p28
aVacomp
p29
aVcompound
p30
aVpcomp
p31
aVintj
p32
aVrelcl
p33
aVnpadvmod
p34
aVxcomp
p35
aVattr
p36
aVdep
p37
aVappos
p38
aVdet
p39
aVnmod
p40
aVdobj
p41
aVdative
p42
aVpobj
p43
aVexpl
p44
aVpredet
p45
aVpreconj
p46
aVoprd
p47
aVacl
p48
atRp49
.