(lp1
((lp2
Vof
p3
aVthis
p4
aVoffice
p5
aVis
p6
aVto
p7
aVsupply
p8
aVand
p9
aVcoordinate
p10
aVaid
p11
aVfrom
p12
a(lp13
Vprep
p14
aVdet
p15
aVpobj
p16
aVROOT
p17
aVaux
p18
aVxcomp
p19
aVcc
p20
aVconj
p21
aVdobj
p22
aVprep
p23
a(lp24
V0.0
p25
ag25
ag25
ag25
ag25
ag25
ag25
ag25
ag25
ag25
a(lp26
g25
ag25
ag25
ag25
ag25
ag25
ag25
ag25
ag25
ag25
aI1
tp27
a((lp28
Va
aVvery
p29
aVvocal
p30
aVsupporter
p31
aVof
p32
aVthe
p33
aVunification
p34
aVof
p35
aVKosovo
p36
aVwith
p37
a(lp38
Vdet
p39
aVadvmod
p40
aVamod
p41
aVattr
p42
aVprep
p43
aVdet
p44
aVpobj
p45
aVprep
p46
aVpobj
p47
aVprep
p48
a(lp49
g25
ag25
ag25
ag25
ag25
ag25
ag25
ag25
ag25
ag25
a(lp50
g25
ag25
ag25
ag25
ag25
ag25
ag25
ag25
ag25
ag25
aI1
tp51
a((lp52
VEuropean
p53
aVmarkets
p54
aVvia
p55
aVTurkey
p56
aV,
aVa
aVstrategic
p57
aVcountry
p58
aVthat
p59
aVconnects
p60
a(lp61
Vconj
p62
aVdobj
p63
aVprep
p64
aVpobj
p65
aVpunct
p66
aVdet
p67
aVamod
p68
aVappos
p69
aVnsubj
p70
aVrelcl
p71
a(lp72
g25
ag25
ag25
ag25
ag25
ag25
ag25
ag25
ag25
ag25
a(lp73
g25
ag25
ag25
ag25
ag25
ag25
ag25
ag25
ag25
ag25
aI1
tp74
a((lp75
V0.0
p76
ag76
aVIn
p77
aV2012
p78
aV,
aVthe
p79
aVmost
p80
aVfree
p81
aVcountries
p82
aVwere
p83
a(lp84
g76
ag76
aVprep
p85
aVpobj
p86
aVpunct
p87
aVdet
p88
aVadvmod
p89
aVamod
p90
aVnsubj
p91
aVROOT
p92
a(lp93
g25
ag25
ag25
ag25
ag25
ag25
ag25
ag25
ag25
ag25
a(lp94
g25
ag25
ag25
ag25
ag25
ag25
ag25
ag25
ag25
ag25
aI1
tp95
a((lp96
g25
ag25
ag25
ag25
ag25
ag25
ag25
ag25
ag25
ag25
a(lp97
g25
ag25
ag25
ag25
ag25
ag25
ag25
ag25
ag25
ag25
a(lp98
Vcircuit
p99
aV.
ag76
ag76
ag76
ag76
ag76
ag76
ag76
ag76
a(lp100
Vdobj
p101
aVpunct
p102
ag76
ag76
ag76
ag76
ag76
ag76
ag76
ag76
aI1
tp103
a((lp104
Vtelevision
p105
aVstation
p106
aVin
p107
aVFajardo
p108
aV,
aVPuerto
p109
aVRico
p110
aV,
aVserving
p111
aVnortheastern
p112
a(lp113
Vcompound
p114
aVattr
p115
aVprep
p116
aVpobj
p117
aVpunct
p118
aVcompound
p119
aVappos
p120
aVpunct
p121
aVadvcl
p122
aVamod
p123
a(lp124
g25
ag25
ag25
ag25
ag25
ag25
ag25
ag25
ag25
ag25
a(lp125
g25
ag25
ag25
ag25
ag25
ag25
ag25
ag25
ag25
ag25
aI1
tp126
a((lp127
g25
ag25
ag25
ag25
ag25
ag25
ag25
ag25
ag25
ag25
a(lp128
g25
ag25
ag25
ag25
ag25
ag25
ag25
ag25
ag25
ag25
a(lp129
V's
p130
aVCommittee
p131
aVfor
p132
aVthe
p133
aVPropagation
p134
aVof
p135
aVVirtue
p136
aVand
p137
aVthe
p138
aVPrevention
p139
a(lp140
Vcase
p141
aVnsubjpass
p142
aVprep
p143
aVdet
p144
aVpobj
p145
aVprep
p146
aVpobj
p147
aVcc
p148
aVdet
p149
aVconj
p150
aI1
tp151
a((lp152
g76
ag76
ag76
aVHe
p153
aVtook
p154
aV21
p155
aVwickets
p156
aVwhen
p157
aVAustralia
p158
aVvisited
p159
a(lp160
g76
ag76
ag76
aVnsubj
p161
aVROOT
p162
aVnummod
p163
aVdobj
p164
aVadvmod
p165
aVnsubj
p166
aVadvcl
p167
a(lp168
g25
ag25
ag25
ag25
ag25
ag25
ag25
ag25
ag25
ag25
a(lp169
g25
ag25
ag25
ag25
ag25
ag25
ag25
ag25
ag25
ag25
aI1
tp170
a((lp171
Vexport
p172
aV,
aVand
p173
aVtrading
p174
aVservices
p175
aVthrough
p176
aVspecialized
p177
aVtrade
p178
aVnetworks
p179
aVbetween
p180
a(lp181
Vconj
p182
aVpunct
p183
aVcc
p184
aVconj
p185
aVdobj
p186
aVprep
p187
aVamod
p188
aVcompound
p189
aVpobj
p190
aVprep
p191
a(lp192
g25
ag25
ag25
ag25
ag25
ag25
ag25
ag25
ag25
ag25
a(lp193
g25
ag25
ag25
ag25
ag25
ag25
ag25
ag25
ag25
ag25
aI1
tp194
a((lp195
Vand
p196
aVSor
p197
aV,
aVis
p198
aVone
p199
aVof
p200
aVthe
p201
aVFinisterre
p202
aVlanguages
p203
aVof
p204
a(lp205
Vcc
p206
aVconj
p207
aVpunct
p208
aVROOT
p209
aVattr
p210
aVprep
p211
aVdet
p212
aVcompound
p213
aVpobj
p214
aVprep
p215
a(lp216
g25
ag25
ag25
ag25
ag25
ag25
ag25
ag25
ag25
ag25
a(lp217
g25
ag25
ag25
ag25
ag25
ag25
ag25
ag25
ag25
ag25
aI1
tp218
a((lp219
Vwhich
p220
aVare
p221
aVbased
p222
aVagainst
p223
aVthe
p224
aVrecent
p225
aVtime
p226
aVof
p227
aVchange
p228
aVin
p229
a(lp230
Vnsubjpass
p231
aVauxpass
p232
aVrelcl
p233
aVprep
p234
aVdet
p235
aVamod
p236
aVpobj
p237
aVprep
p238
aVpobj
p239
aVprep
p240
a(lp241
g25
ag25
ag25
ag25
ag25
ag25
ag25
ag25
ag25
ag25
a(lp242
g25
ag25
ag25
ag25
ag25
ag25
ag25
ag25
ag25
ag25
aI1
tp243
a((lp244
VLapland
p245
aV2008
p246
aV)
aV,
aVMaster
p247
aVof
p248
aVLaws
p249
aV(
aVUniversity
p250
aVof
p251
a(lp252
Vpobj
p253
aVnummod
p254
aVpunct
p255
aVpunct
p256
aVconj
p257
aVprep
p258
aVpobj
p259
aVpunct
p260
aVnpadvmod
p261
aVprep
p262
a(lp263
g25
ag25
ag25
ag25
ag25
ag25
ag25
ag25
ag25
ag25
a(lp264
g25
ag25
ag25
ag25
ag25
ag25
ag25
ag25
ag25
ag25
aI1
tp265
a((lp266
g25
ag25
ag25
ag25
ag25
ag25
ag25
ag25
ag25
ag25
a(lp267
g25
ag25
ag25
ag25
ag25
ag25
ag25
ag25
ag25
ag25
a(lp268
Vblockade
p269
aV,
aVwhich
p270
aVbegan
p271
aVon
p272
aV23
p273
aVSeptember
p274
aV2015
p275
aV,
aVis
p276
a(lp277
Vnsubj
p278
aVpunct
p279
aVnsubj
p280
aVrelcl
p281
aVprep
p282
aVnummod
p283
aVpobj
p284
aVnummod
p285
aVpunct
p286
aVROOT
p287
aI1
tp288
a((lp289
Voffice
p290
aVis
p291
aVto
p292
aVsupply
p293
aVand
p294
aVcoordinate
p295
aVaid
p296
aVfrom
p297
aVMalaysia
p298
aVto
p299
a(lp300
Vpobj
p301
aVROOT
p302
aVaux
p303
aVxcomp
p304
aVcc
p305
aVconj
p306
aVdobj
p307
aVprep
p308
aVpobj
p309
aVprep
p310
a(lp311
g25
ag25
ag25
ag25
ag25
ag25
ag25
ag25
ag25
ag25
a(lp312
g25
ag25
ag25
ag25
ag25
ag25
ag25
ag25
ag25
ag25
aI1
tp313
a((lp314
g25
ag25
ag25
ag25
ag25
ag25
ag25
ag25
ag25
ag25
a(lp315
g25
ag25
ag25
ag25
ag25
ag25
ag25
ag25
ag25
ag25
a(lp316
V's
p317
aVunification
p318
aVwith
p319
aVAlbania
p320
aVis
p321
aVa
aVpolitical
p322
aVidea
p323
aV,
aVrevived
p324
a(lp325
Vcase
p326
aVnsubj
p327
aVprep
p328
aVpobj
p329
aVROOT
p330
aVdet
p331
aVamod
p332
aVattr
p333
aVpunct
p334
aVacl
p335
aI1
tp336
a((lp337
V(
aVGezawa
p338
aV)
aVis
p339
aVa
aVminor
p340
aVChadic
p341
aVdialect
p342
aVcluster
p343
aVof
p344
a(lp345
Vpunct
p346
aVappos
p347
aVpunct
p348
aVROOT
p349
aVdet
p350
aVamod
p351
aVamod
p352
aVcompound
p353
aVattr
p354
aVprep
p355
a(lp356
g25
ag25
ag25
ag25
ag25
ag25
ag25
ag25
ag25
ag25
a(lp357
g25
ag25
ag25
ag25
ag25
ag25
ag25
ag25
ag25
ag25
aI1
tp358
a((lp359
Vpolicy
p360
aVor
p361
aVcivil
p362
aVstrife
p363
aV,
aVnotably
p364
aVPakistan
p365
aV,
aVPalestinian
p366
aVterritories
p367
a(lp368
Vpobj
p369
aVcc
p370
aVamod
p371
aVconj
p372
aVpunct
p373
aVadvmod
p374
aVnmod
p375
aVpunct
p376
aVamod
p377
aVconj
p378
a(lp379
g25
ag25
ag25
ag25
ag25
ag25
ag25
ag25
ag25
ag25
a(lp380
g25
ag25
ag25
ag25
ag25
ag25
ag25
ag25
ag25
ag25
aI1
tp381
a((lp382
Vhost
p383
aVthe
p384
aVgames
p385
aV:
aVHarbin
p386
aV(
aVChina
p387
aV)
aV,
aVInnsbruck
p388
a(lp389
Vacl
p390
aVdet
p391
aVdobj
p392
aVpunct
p393
aVnmod
p394
aVpunct
p395
aVnmod
p396
aVpunct
p397
aVpunct
p398
aVnpadvmod
p399
a(lp400
g25
ag25
ag25
ag25
ag25
ag25
ag25
ag25
ag25
ag25
a(lp401
g25
ag25
ag25
ag25
ag25
ag25
ag25
ag25
ag25
ag25
aI1
tp402
a.