(lp1
((lp2
V0.0
p3
ag3
ag3
ag3
ag3
ag3
ag3
ag3
ag3
ag3
ag3
ag3
ag3
ag3
ag3
ag3
ag3
ag3
ag3
ag3
ag3
ag3
ag3
ag3
ag3
ag3
ag3
ag3
ag3
ag3
ag3
ag3
ag3
ag3
ag3
ag3
ag3
ag3
aVThe
p4
aVrole
p5
aVof
p6
aVthis
p7
aVoffice
p8
aVis
p9
aVto
p10
aVsupply
p11
aVand
p12
aVcoordinate
p13
aVaid
p14
aVfrom
p15
a(lp16
g3
ag3
ag3
ag3
ag3
ag3
ag3
ag3
ag3
ag3
ag3
ag3
ag3
ag3
ag3
ag3
ag3
ag3
ag3
ag3
ag3
ag3
ag3
ag3
ag3
ag3
ag3
ag3
ag3
ag3
ag3
ag3
ag3
ag3
ag3
ag3
ag3
ag3
aVdet
p17
aVnsubj
p18
aVprep
p19
aVdet
p20
aVpobj
p21
aVROOT
p22
aVaux
p23
aVxcomp
p24
aVcc
p25
aVconj
p26
aVdobj
p27
aVprep
p28
a(lp29
Vto
p30
aVKosovo
p31
aVand
p32
aValso
p33
aVto
p34
aVenable
p35
aVcommunication
p36
aVbetween
p37
aVthe
p38
aVMalaysian
p39
aVgovernment
p40
aVand
p41
aVthe
p42
aVUNMIK.
p43
ag3
ag3
ag3
ag3
ag3
ag3
ag3
ag3
ag3
ag3
ag3
ag3
ag3
ag3
ag3
ag3
ag3
ag3
ag3
ag3
ag3
ag3
ag3
ag3
ag3
ag3
ag3
ag3
ag3
ag3
ag3
ag3
ag3
ag3
ag3
ag3
a(lp44
Vprep
p45
aVpobj
p46
aVcc
p47
aVadvmod
p48
aVaux
p49
aVconj
p50
aVdobj
p51
aVprep
p52
aVdet
p53
aVamod
p54
aVpobj
p55
aVcc
p56
aVdet
p57
aVconj
p58
ag3
ag3
ag3
ag3
ag3
ag3
ag3
ag3
ag3
ag3
ag3
ag3
ag3
ag3
ag3
ag3
ag3
ag3
ag3
ag3
ag3
ag3
ag3
ag3
ag3
ag3
ag3
ag3
ag3
ag3
ag3
ag3
ag3
ag3
ag3
ag3
aI1
tp59
a((lp60
g3
ag3
ag3
ag3
ag3
ag3
ag3
ag3
ag3
ag3
ag3
ag3
ag3
ag3
ag3
aVPolitical
p61
aVactivist
p62
aVUkshin
p63
aVHoti
p64
aV,
aVfounder
p65
aVof
p66
aVthe
p67
aVParty
p68
aVof
p69
aVAlbanian
p70
aVNational
p71
aVUnion
p72
aV,
aVand
p73
aVeventually
p74
aVkilled
p75
aVby
p76
aVthe
p77
aVSerbian
p78
aVpolice
p79
aVin
p80
aV1999
p81
aV,
aVwas
p82
aVa
aVvery
p83
aVvocal
p84
aVsupporter
p85
aVof
p86
aVthe
p87
aVunification
p88
aVof
p89
aVKosovo
p90
aVwith
p91
a(lp92
g3
ag3
ag3
ag3
ag3
ag3
ag3
ag3
ag3
ag3
ag3
ag3
ag3
ag3
ag3
aVamod
p93
aVcompound
p94
aVcompound
p95
aVnsubj
p96
aVpunct
p97
aVappos
p98
aVprep
p99
aVdet
p100
aVpobj
p101
aVprep
p102
aVcompound
p103
aVcompound
p104
aVpobj
p105
aVpunct
p106
aVcc
p107
aVadvmod
p108
aVconj
p109
aVagent
p110
aVdet
p111
aVamod
p112
aVpobj
p113
aVprep
p114
aVpobj
p115
aVpunct
p116
aVROOT
p117
aVdet
p118
aVadvmod
p119
aVamod
p120
aVattr
p121
aVprep
p122
aVdet
p123
aVpobj
p124
aVprep
p125
aVpobj
p126
aVprep
p127
a(lp128
V.
ag3
ag3
ag3
ag3
ag3
ag3
ag3
ag3
ag3
ag3
ag3
ag3
ag3
ag3
ag3
ag3
ag3
ag3
ag3
ag3
ag3
ag3
ag3
ag3
ag3
ag3
ag3
ag3
ag3
ag3
ag3
ag3
ag3
ag3
ag3
ag3
ag3
ag3
ag3
ag3
ag3
ag3
ag3
ag3
ag3
ag3
ag3
ag3
ag3
a(lp129
Vpunct
p130
ag3
ag3
ag3
ag3
ag3
ag3
ag3
ag3
ag3
ag3
ag3
ag3
ag3
ag3
ag3
ag3
ag3
ag3
ag3
ag3
ag3
ag3
ag3
ag3
ag3
ag3
ag3
ag3
ag3
ag3
ag3
ag3
ag3
ag3
ag3
ag3
ag3
ag3
ag3
ag3
ag3
ag3
ag3
ag3
ag3
ag3
ag3
ag3
ag3
aI1
tp131
a((lp132
g3
ag3
ag3
ag3
ag3
ag3
ag3
ag3
ag3
ag3
ag3
ag3
ag3
ag3
ag3
ag3
ag3
ag3
ag3
ag3
ag3
ag3
ag3
ag3
ag3
ag3
ag3
ag3
ag3
ag3
ag3
ag3
ag3
ag3
ag3
aVEximtech
p133
aVreaches
p134
aVout
p135
aVAsian
p136
aVand
p137
aVEuropean
p138
aVmarkets
p139
aVvia
p140
aVTurkey
p141
aV,
aVa
aVstrategic
p142
aVcountry
p143
aVthat
p144
aVconnects
p145
a(lp146
g3
ag3
ag3
ag3
ag3
ag3
ag3
ag3
ag3
ag3
ag3
ag3
ag3
ag3
ag3
ag3
ag3
ag3
ag3
ag3
ag3
ag3
ag3
ag3
ag3
ag3
ag3
ag3
ag3
ag3
ag3
ag3
ag3
ag3
ag3
aVnsubj
p147
aVROOT
p148
aVprt
p149
aVamod
p150
aVcc
p151
aVconj
p152
aVdobj
p153
aVprep
p154
aVpobj
p155
aVpunct
p156
aVdet
p157
aVamod
p158
aVappos
p159
aVnsubj
p160
aVrelcl
p161
a(lp162
Vto
p163
aVEurope
p164
aV.
ag3
ag3
ag3
ag3
ag3
ag3
ag3
ag3
ag3
ag3
ag3
ag3
ag3
ag3
ag3
ag3
ag3
ag3
ag3
ag3
ag3
ag3
ag3
ag3
ag3
ag3
ag3
ag3
ag3
ag3
ag3
ag3
ag3
ag3
ag3
ag3
ag3
ag3
ag3
ag3
ag3
ag3
ag3
ag3
ag3
ag3
ag3
a(lp165
Vprep
p166
aVpobj
p167
aVpunct
p168
ag3
ag3
ag3
ag3
ag3
ag3
ag3
ag3
ag3
ag3
ag3
ag3
ag3
ag3
ag3
ag3
ag3
ag3
ag3
ag3
ag3
ag3
ag3
ag3
ag3
ag3
ag3
ag3
ag3
ag3
ag3
ag3
ag3
ag3
ag3
ag3
ag3
ag3
ag3
ag3
ag3
ag3
ag3
ag3
ag3
ag3
ag3
aI1
tp169
a((lp170
g3
ag3
ag3
ag3
ag3
ag3
ag3
ag3
ag3
ag3
ag3
ag3
ag3
ag3
ag3
ag3
ag3
ag3
ag3
ag3
ag3
ag3
ag3
ag3
ag3
ag3
ag3
ag3
ag3
aVIn
p171
aV2012
p172
aV,
aVthe
p173
aVmost
p174
aVfree
p175
aVcountries
p176
aVwere
p177
aVNew
p178
aVZealand
p179
aV(
aV8.73
p180
aV)
aV,
aVthe
p181
aVNetherlands
p182
aV(
aV8.47
p183
aV)
aV,
aVand
p184
a(lp185
g3
ag3
ag3
ag3
ag3
ag3
ag3
ag3
ag3
ag3
ag3
ag3
ag3
ag3
ag3
ag3
ag3
ag3
ag3
ag3
ag3
ag3
ag3
ag3
ag3
ag3
ag3
ag3
ag3
aVprep
p186
aVpobj
p187
aVpunct
p188
aVdet
p189
aVadvmod
p190
aVamod
p191
aVnsubj
p192
aVROOT
p193
aVcompound
p194
aVattr
p195
aVpunct
p196
aVparataxis
p197
aVpunct
p198
aVpunct
p199
aVdet
p200
aVconj
p201
aVpunct
p202
aVparataxis
p203
aVpunct
p204
aVpunct
p205
aVcc
p206
a(lp207
V(
aV8.39
p208
aV)
aV.
ag3
ag3
ag3
ag3
ag3
ag3
ag3
ag3
ag3
ag3
ag3
ag3
ag3
ag3
ag3
ag3
ag3
ag3
ag3
ag3
ag3
ag3
ag3
ag3
ag3
ag3
ag3
ag3
ag3
ag3
ag3
ag3
ag3
ag3
ag3
ag3
ag3
ag3
ag3
ag3
ag3
ag3
ag3
ag3
ag3
ag3
a(lp209
Vpunct
p210
aVnummod
p211
aVpunct
p212
aVpunct
p213
ag3
ag3
ag3
ag3
ag3
ag3
ag3
ag3
ag3
ag3
ag3
ag3
ag3
ag3
ag3
ag3
ag3
ag3
ag3
ag3
ag3
ag3
ag3
ag3
ag3
ag3
ag3
ag3
ag3
ag3
ag3
ag3
ag3
ag3
ag3
ag3
ag3
ag3
ag3
ag3
ag3
ag3
ag3
ag3
ag3
ag3
aI1
tp214
a((lp215
g3
ag3
ag3
ag3
ag3
ag3
ag3
ag3
ag3
ag3
ag3
ag3
ag3
ag3
ag3
ag3
ag3
ag3
ag3
ag3
ag3
ag3
ag3
ag3
ag3
ag3
ag3
ag3
ag3
ag3
ag3
aVCircuit
p216
aVmembership
p217
aVdecreased
p218
aVby
p219
aV175
p220
aV,
aVowing
p221
aVmainly
p222
aVto
p223
aVthe
p224
aVsplit
p225
aVoff
p226
aVof
p227
aVsome
p228
aVmembership
p229
aVto
p230
aVform
p231
aVa
aVnew
p232
a(lp233
g3
ag3
ag3
ag3
ag3
ag3
ag3
ag3
ag3
ag3
ag3
ag3
ag3
ag3
ag3
ag3
ag3
ag3
ag3
ag3
ag3
ag3
ag3
ag3
ag3
ag3
ag3
ag3
ag3
ag3
ag3
aVcompound
p234
aVnsubj
p235
aVROOT
p236
aVprep
p237
aVpobj
p238
aVpunct
p239
aVadvcl
p240
aVadvmod
p241
aVprep
p242
aVdet
p243
aVpobj
p244
aVprt
p245
aVprep
p246
aVdet
p247
aVpobj
p248
aVaux
p249
aVacl
p250
aVdet
p251
aVamod
p252
a(lp253
Vcircuit
p254
aV.
ag3
ag3
ag3
ag3
ag3
ag3
ag3
ag3
ag3
ag3
ag3
ag3
ag3
ag3
ag3
ag3
ag3
ag3
ag3
ag3
ag3
ag3
ag3
ag3
ag3
ag3
ag3
ag3
ag3
ag3
ag3
ag3
ag3
ag3
ag3
ag3
ag3
ag3
ag3
ag3
ag3
ag3
ag3
ag3
ag3
ag3
ag3
ag3
a(lp255
Vdobj
p256
aVpunct
p257
ag3
ag3
ag3
ag3
ag3
ag3
ag3
ag3
ag3
ag3
ag3
ag3
ag3
ag3
ag3
ag3
ag3
ag3
ag3
ag3
ag3
ag3
ag3
ag3
ag3
ag3
ag3
ag3
ag3
ag3
ag3
ag3
ag3
ag3
ag3
ag3
ag3
ag3
ag3
ag3
ag3
ag3
ag3
ag3
ag3
ag3
ag3
ag3
aI1
tp258
a((lp259
g3
ag3
ag3
ag3
ag3
ag3
ag3
ag3
ag3
ag3
ag3
ag3
ag3
ag3
ag3
ag3
ag3
ag3
ag3
ag3
ag3
ag3
ag3
ag3
ag3
ag3
ag3
ag3
ag3
ag3
ag3
ag3
ag3
aVWRUA
p260
aVis
p261
aVa
aVSpanish
p262
aV-
aVlanguage
p263
aVindependent
p264
aVtelevision
p265
aVstation
p266
aVin
p267
aVFajardo
p268
aV,
aVPuerto
p269
aVRico
p270
aV,
aVserving
p271
aVnortheastern
p272
a(lp273
g3
ag3
ag3
ag3
ag3
ag3
ag3
ag3
ag3
ag3
ag3
ag3
ag3
ag3
ag3
ag3
ag3
ag3
ag3
ag3
ag3
ag3
ag3
ag3
ag3
ag3
ag3
ag3
ag3
ag3
ag3
ag3
ag3
aVnsubj
p274
aVROOT
p275
aVdet
p276
aVamod
p277
aVpunct
p278
aVnmod
p279
aVamod
p280
aVcompound
p281
aVattr
p282
aVprep
p283
aVpobj
p284
aVpunct
p285
aVcompound
p286
aVappos
p287
aVpunct
p288
aVadvcl
p289
aVamod
p290
a(lp291
Von
p292
aVdigital
p293
aVchannel
p294
aV33
p295
aV,
aVvirtual
p296
aVchannel
p297
aV8
aV.
ag3
ag3
ag3
ag3
ag3
ag3
ag3
ag3
ag3
ag3
ag3
ag3
ag3
ag3
ag3
ag3
ag3
ag3
ag3
ag3
ag3
ag3
ag3
ag3
ag3
ag3
ag3
ag3
ag3
ag3
ag3
ag3
ag3
ag3
ag3
ag3
ag3
ag3
ag3
ag3
ag3
a(lp298
Vprep
p299
aVamod
p300
aVpobj
p301
aVnummod
p302
aVpunct
p303
aVamod
p304
aVappos
p305
aVnummod
p306
aVpunct
p307
ag3
ag3
ag3
ag3
ag3
ag3
ag3
ag3
ag3
ag3
ag3
ag3
ag3
ag3
ag3
ag3
ag3
ag3
ag3
ag3
ag3
ag3
ag3
ag3
ag3
ag3
ag3
ag3
ag3
ag3
ag3
ag3
ag3
ag3
ag3
ag3
ag3
ag3
ag3
ag3
ag3
aI1
tp308
a((lp309
g3
ag3
ag3
ag3
ag3
ag3
ag3
ag3
ag3
ag3
ag3
ag3
ag3
ag3
ag3
ag3
ag3
ag3
ag3
ag3
ag3
ag3
ag3
ag3
ag3
ag3
ag3
ag3
ag3
ag3
ag3
ag3
ag3
ag3
ag3
ag3
ag3
ag3
ag3
ag3
ag3
ag3
ag3
ag3
ag3
ag3
ag3
ag3
ag3
ag3
a(lp310
g3
ag3
ag3
ag3
ag3
ag3
ag3
ag3
ag3
ag3
ag3
ag3
ag3
ag3
ag3
ag3
ag3
ag3
ag3
ag3
ag3
ag3
ag3
ag3
ag3
ag3
ag3
ag3
ag3
ag3
ag3
ag3
ag3
ag3
ag3
ag3
ag3
ag3
ag3
ag3
ag3
ag3
ag3
ag3
ag3
ag3
ag3
ag3
ag3
ag3
a(lp311
V's
p312
aVCommittee
p313
aVfor
p314
aVthe
p315
aVPropagation
p316
aVof
p317
aVVirtue
p318
aVand
p319
aVthe
p320
aVPrevention
p321
aVof
p322
aVVice
p323
aV(
aVAmar
p324
aVBil
p325
aVMaroof
p326
aVWa
p327
aVNahi
p328
aVAn
p329
aVal
p330
aV-
aVMunkar
p331
aV)
aVwas
p332
aVfirst
p333
aVinstituted
p334
aVby
p335
aVthe
p336
aV1992
p337
aVRabbani
p338
aVregime
p339
aV,
aVand
p340
aVadopted
p341
aVby
p342
aVthe
p343
aVTaliban
p344
aVwhen
p345
aVthey
p346
aVtook
p347
aVpower
p348
aVin
p349
aV1996
p350
aV.
ag3
ag3
ag3
ag3
ag3
ag3
a(lp351
Vcase
p352
aVnsubjpass
p353
aVprep
p354
aVdet
p355
aVpobj
p356
aVprep
p357
aVpobj
p358
aVcc
p359
aVdet
p360
aVconj
p361
aVprep
p362
aVpobj
p363
aVpunct
p364
aVcompound
p365
aVcompound
p366
aVcompound
p367
aVcompound
p368
aVappos
p369
aVcompound
p370
aVcompound
p371
aVpunct
p372
aVappos
p373
aVpunct
p374
aVauxpass
p375
aVadvmod
p376
aVROOT
p377
aVagent
p378
aVdet
p379
aVnummod
p380
aVcompound
p381
aVpobj
p382
aVpunct
p383
aVcc
p384
aVconj
p385
aVagent
p386
aVdet
p387
aVpobj
p388
aVadvmod
p389
aVnsubj
p390
aVadvcl
p391
aVdobj
p392
aVprep
p393
aVpobj
p394
aVpunct
p395
ag3
ag3
ag3
ag3
ag3
ag3
aI1
tp396
a((lp397
g3
ag3
ag3
ag3
ag3
ag3
ag3
ag3
ag3
ag3
ag3
ag3
ag3
ag3
ag3
ag3
ag3
ag3
ag3
ag3
ag3
ag3
ag3
ag3
ag3
ag3
ag3
ag3
ag3
ag3
ag3
ag3
ag3
ag3
ag3
ag3
ag3
ag3
ag3
ag3
ag3
ag3
ag3
aVHe
p398
aVtook
p399
aV21
p400
aVwickets
p401
aVwhen
p402
aVAustralia
p403
aVvisited
p404
a(lp405
g3
ag3
ag3
ag3
ag3
ag3
ag3
ag3
ag3
ag3
ag3
ag3
ag3
ag3
ag3
ag3
ag3
ag3
ag3
ag3
ag3
ag3
ag3
ag3
ag3
ag3
ag3
ag3
ag3
ag3
ag3
ag3
ag3
ag3
ag3
ag3
ag3
ag3
ag3
ag3
ag3
ag3
ag3
aVnsubj
p406
aVROOT
p407
aVnummod
p408
aVdobj
p409
aVadvmod
p410
aVnsubj
p411
aVadvcl
p412
a(lp413
Vand
p414
aVPakistan
p415
aVon
p416
aVthe
p417
aVreturn
p418
aVjourney
p419
aVto
p420
aVAustralia
p421
aV.
ag3
ag3
ag3
ag3
ag3
ag3
ag3
ag3
ag3
ag3
ag3
ag3
ag3
ag3
ag3
ag3
ag3
ag3
ag3
ag3
ag3
ag3
ag3
ag3
ag3
ag3
ag3
ag3
ag3
ag3
ag3
ag3
ag3
ag3
ag3
ag3
ag3
ag3
ag3
ag3
ag3
a(lp422
Vcc
p423
aVconj
p424
aVprep
p425
aVdet
p426
aVcompound
p427
aVpobj
p428
aVprep
p429
aVpobj
p430
aVpunct
p431
ag3
ag3
ag3
ag3
ag3
ag3
ag3
ag3
ag3
ag3
ag3
ag3
ag3
ag3
ag3
ag3
ag3
ag3
ag3
ag3
ag3
ag3
ag3
ag3
ag3
ag3
ag3
ag3
ag3
ag3
ag3
ag3
ag3
ag3
ag3
ag3
ag3
ag3
ag3
ag3
ag3
aI1
tp432
a((lp433
g3
ag3
ag3
ag3
ag3
ag3
ag3
ag3
ag3
ag3
ag3
ag3
ag3
ag3
ag3
ag3
ag3
ag3
ag3
ag3
ag3
ag3
ag3
ag3
ag3
ag3
ag3
ag3
ag3
ag3
ag3
ag3
ag3
ag3
aVEximTek
p434
aVprovides
p435
aVimport
p436
aV,
aVexport
p437
aV,
aVand
p438
aVtrading
p439
aVservices
p440
aVthrough
p441
aVspecialized
p442
aVtrade
p443
aVnetworks
p444
aVbetween
p445
aVCanada
p446
aV,
a(lp447
g3
ag3
ag3
ag3
ag3
ag3
ag3
ag3
ag3
ag3
ag3
ag3
ag3
ag3
ag3
ag3
ag3
ag3
ag3
ag3
ag3
ag3
ag3
ag3
ag3
ag3
ag3
ag3
ag3
ag3
ag3
ag3
ag3
ag3
aVnsubj
p448
aVROOT
p449
aVnmod
p450
aVpunct
p451
aVconj
p452
aVpunct
p453
aVcc
p454
aVconj
p455
aVdobj
p456
aVprep
p457
aVamod
p458
aVcompound
p459
aVpobj
p460
aVprep
p461
aVpobj
p462
aVpunct
p463
a(lp464
V,
aVand
p465
aVthe
p466
aVUSA.
p467
ag3
ag3
ag3
ag3
ag3
ag3
ag3
ag3
ag3
ag3
ag3
ag3
ag3
ag3
ag3
ag3
ag3
ag3
ag3
ag3
ag3
ag3
ag3
ag3
ag3
ag3
ag3
ag3
ag3
ag3
ag3
ag3
ag3
ag3
ag3
ag3
ag3
ag3
ag3
ag3
ag3
ag3
ag3
ag3
ag3
ag3
a(lp468
Vpunct
p469
aVcc
p470
aVdet
p471
aVconj
p472
ag3
ag3
ag3
ag3
ag3
ag3
ag3
ag3
ag3
ag3
ag3
ag3
ag3
ag3
ag3
ag3
ag3
ag3
ag3
ag3
ag3
ag3
ag3
ag3
ag3
ag3
ag3
ag3
ag3
ag3
ag3
ag3
ag3
ag3
ag3
ag3
ag3
ag3
ag3
ag3
ag3
ag3
ag3
ag3
ag3
ag3
aI1
tp473
a((lp474
g3
ag3
ag3
ag3
ag3
ag3
ag3
ag3
ag3
ag3
ag3
ag3
ag3
ag3
ag3
ag3
ag3
ag3
ag3
ag3
ag3
ag3
ag3
ag3
ag3
ag3
ag3
ag3
ag3
ag3
ag3
ag3
ag3
ag3
aVNgaing
p475
aV,
aValso
p476
aVknown
p477
aVas
p478
aVMailang
p479
aVand
p480
aVSor
p481
aV,
aVis
p482
aVone
p483
aVof
p484
aVthe
p485
aVFinisterre
p486
aVlanguages
p487
aVof
p488
a(lp489
g3
ag3
ag3
ag3
ag3
ag3
ag3
ag3
ag3
ag3
ag3
ag3
ag3
ag3
ag3
ag3
ag3
ag3
ag3
ag3
ag3
ag3
ag3
ag3
ag3
ag3
ag3
ag3
ag3
ag3
ag3
ag3
ag3
ag3
aVnsubj
p490
aVpunct
p491
aVadvmod
p492
aVacl
p493
aVprep
p494
aVpobj
p495
aVcc
p496
aVconj
p497
aVpunct
p498
aVROOT
p499
aVattr
p500
aVprep
p501
aVdet
p502
aVcompound
p503
aVpobj
p504
aVprep
p505
a(lp506
V.
ag3
ag3
ag3
ag3
ag3
ag3
ag3
ag3
ag3
ag3
ag3
ag3
ag3
ag3
ag3
ag3
ag3
ag3
ag3
ag3
ag3
ag3
ag3
ag3
ag3
ag3
ag3
ag3
ag3
ag3
ag3
ag3
ag3
ag3
ag3
ag3
ag3
ag3
ag3
ag3
ag3
ag3
ag3
ag3
ag3
ag3
ag3
ag3
ag3
a(lp507
Vpunct
p508
ag3
ag3
ag3
ag3
ag3
ag3
ag3
ag3
ag3
ag3
ag3
ag3
ag3
ag3
ag3
ag3
ag3
ag3
ag3
ag3
ag3
ag3
ag3
ag3
ag3
ag3
ag3
ag3
ag3
ag3
ag3
ag3
ag3
ag3
ag3
ag3
ag3
ag3
ag3
ag3
ag3
ag3
ag3
ag3
ag3
ag3
ag3
ag3
ag3
aI1
tp509
a((lp510
g3
ag3
ag3
ag3
ag3
ag3
ag3
ag3
ag3
ag3
ag3
ag3
ag3
ag3
ag3
ag3
ag3
ag3
ag3
ag3
ag3
ag3
ag3
ag3
ag3
ag3
ag3
ag3
ag3
ag3
ag3
aVSince
p511
aVthen
p512
aVshe
p513
aVhas
p514
aVpublished
p515
aVa
aVline
p516
aVof
p517
aVbooks
p518
aVwhich
p519
aVare
p520
aVbased
p521
aVagainst
p522
aVthe
p523
aVrecent
p524
aVtime
p525
aVof
p526
aVchange
p527
aVin
p528
a(lp529
g3
ag3
ag3
ag3
ag3
ag3
ag3
ag3
ag3
ag3
ag3
ag3
ag3
ag3
ag3
ag3
ag3
ag3
ag3
ag3
ag3
ag3
ag3
ag3
ag3
ag3
ag3
ag3
ag3
ag3
ag3
aVprep
p530
aVpcomp
p531
aVnsubj
p532
aVaux
p533
aVROOT
p534
aVdet
p535
aVdobj
p536
aVprep
p537
aVpobj
p538
aVnsubjpass
p539
aVauxpass
p540
aVrelcl
p541
aVprep
p542
aVdet
p543
aVamod
p544
aVpobj
p545
aVprep
p546
aVpobj
p547
aVprep
p548
a(lp549
V.
ag3
ag3
ag3
ag3
ag3
ag3
ag3
ag3
ag3
ag3
ag3
ag3
ag3
ag3
ag3
ag3
ag3
ag3
ag3
ag3
ag3
ag3
ag3
ag3
ag3
ag3
ag3
ag3
ag3
ag3
ag3
ag3
ag3
ag3
ag3
ag3
ag3
ag3
ag3
ag3
ag3
ag3
ag3
ag3
ag3
ag3
ag3
ag3
ag3
a(lp550
Vpunct
p551
ag3
ag3
ag3
ag3
ag3
ag3
ag3
ag3
ag3
ag3
ag3
ag3
ag3
ag3
ag3
ag3
ag3
ag3
ag3
ag3
ag3
ag3
ag3
ag3
ag3
ag3
ag3
ag3
ag3
ag3
ag3
ag3
ag3
ag3
ag3
ag3
ag3
ag3
ag3
ag3
ag3
ag3
ag3
ag3
ag3
ag3
ag3
ag3
ag3
aI1
tp552
a((lp553
g3
ag3
ag3
ag3
ag3
ag3
ag3
ag3
ag3
ag3
ag3
ag3
ag3
ag3
ag3
ag3
ag3
ag3
ag3
ag3
ag3
ag3
ag3
ag3
ag3
ag3
ag3
ag3
ag3
aVDr
p554
aVLehto
p555
aVholds
p556
aVa
aVPh
p557
aV.
aVD.
p558
aVin
p559
aVinternational
p560
aVlaw
p561
aV(
aVUniversity
p562
aVof
p563
aVLapland
p564
aV2008
p565
aV)
aV,
aVMaster
p566
aVof
p567
aVLaws
p568
aV(
a(lp569
g3
ag3
ag3
ag3
ag3
ag3
ag3
ag3
ag3
ag3
ag3
ag3
ag3
ag3
ag3
ag3
ag3
ag3
ag3
ag3
ag3
ag3
ag3
ag3
ag3
ag3
ag3
ag3
ag3
aVcompound
p570
aVnsubj
p571
aVROOT
p572
aVdet
p573
aVdobj
p574
aVpunct
p575
aVROOT
p576
aVprep
p577
aVamod
p578
aVpobj
p579
aVpunct
p580
aVnpadvmod
p581
aVprep
p582
aVpobj
p583
aVnummod
p584
aVpunct
p585
aVpunct
p586
aVconj
p587
aVprep
p588
aVpobj
p589
aVpunct
p590
a(lp591
V1984
p592
aV)
aV,
aVMaster
p593
aVof
p594
aVPolitical
p595
aVScience
p596
aV(
aVUniversity
p597
aVof
p598
aVHelsinki
p599
aV1989
p600
aV)
aV.
ag3
ag3
ag3
ag3
ag3
ag3
ag3
ag3
ag3
ag3
ag3
ag3
ag3
ag3
ag3
ag3
ag3
ag3
ag3
ag3
ag3
ag3
ag3
ag3
ag3
ag3
ag3
ag3
ag3
ag3
ag3
ag3
ag3
ag3
ag3
ag3
a(lp601
Vnummod
p602
aVpunct
p603
aVpunct
p604
aVconj
p605
aVprep
p606
aVcompound
p607
aVpobj
p608
aVpunct
p609
aVnpadvmod
p610
aVprep
p611
aVpobj
p612
aVnummod
p613
aVpunct
p614
aVpunct
p615
ag3
ag3
ag3
ag3
ag3
ag3
ag3
ag3
ag3
ag3
ag3
ag3
ag3
ag3
ag3
ag3
ag3
ag3
ag3
ag3
ag3
ag3
ag3
ag3
ag3
ag3
ag3
ag3
ag3
ag3
ag3
ag3
ag3
ag3
ag3
ag3
aI1
tp616
a((lp617
g3
ag3
ag3
ag3
ag3
ag3
ag3
ag3
ag3
ag3
ag3
ag3
ag3
ag3
ag3
ag3
ag3
ag3
ag3
ag3
ag3
ag3
ag3
ag3
ag3
ag3
ag3
ag3
ag3
ag3
ag3
ag3
ag3
ag3
ag3
ag3
ag3
ag3
ag3
ag3
ag3
ag3
ag3
ag3
ag3
ag3
ag3
ag3
aVThe
p618
aV2015
p619
a(lp620
g3
ag3
ag3
ag3
ag3
ag3
ag3
ag3
ag3
ag3
ag3
ag3
ag3
ag3
ag3
ag3
ag3
ag3
ag3
ag3
ag3
ag3
ag3
ag3
ag3
ag3
ag3
ag3
ag3
ag3
ag3
ag3
ag3
ag3
ag3
ag3
ag3
ag3
ag3
ag3
ag3
ag3
ag3
ag3
ag3
ag3
ag3
ag3
aVdet
p621
aVnummod
p622
a(lp623
Vblockade
p624
aV,
aVwhich
p625
aVbegan
p626
aVon
p627
aV23
p628
aVSeptember
p629
aV2015
p630
aV,
aVis
p631
aVan
p632
aVeconomic
p633
aVand
p634
aVhumanitarian
p635
aVcrisis
p636
aVwhich
p637
aVhas
p638
aVseverely
p639
aVaffected
p640
aVNepal
p641
aVand
p642
aVits
p643
aVeconomy
p644
aV.
ag3
ag3
ag3
ag3
ag3
ag3
ag3
ag3
ag3
ag3
ag3
ag3
ag3
ag3
ag3
ag3
ag3
ag3
ag3
ag3
ag3
ag3
ag3
ag3
ag3
ag3
a(lp645
Vnsubj
p646
aVpunct
p647
aVnsubj
p648
aVrelcl
p649
aVprep
p650
aVnummod
p651
aVpobj
p652
aVnummod
p653
aVpunct
p654
aVROOT
p655
aVdet
p656
aVamod
p657
aVcc
p658
aVconj
p659
aVattr
p660
aVnsubj
p661
aVaux
p662
aVadvmod
p663
aVrelcl
p664
aVdobj
p665
aVcc
p666
aVposs
p667
aVconj
p668
aVpunct
p669
ag3
ag3
ag3
ag3
ag3
ag3
ag3
ag3
ag3
ag3
ag3
ag3
ag3
ag3
ag3
ag3
ag3
ag3
ag3
ag3
ag3
ag3
ag3
ag3
ag3
ag3
aI1
tp670
a((lp671
g3
ag3
ag3
ag3
ag3
ag3
ag3
ag3
ag3
ag3
ag3
ag3
ag3
ag3
ag3
ag3
ag3
ag3
ag3
ag3
ag3
ag3
ag3
ag3
ag3
ag3
ag3
ag3
ag3
ag3
ag3
ag3
ag3
ag3
ag3
ag3
aVThe
p672
aVrole
p673
aVof
p674
aVthis
p675
aVoffice
p676
aVis
p677
aVto
p678
aVsupply
p679
aVand
p680
aVcoordinate
p681
aVaid
p682
aVfrom
p683
aVMalaysia
p684
aVto
p685
a(lp686
g3
ag3
ag3
ag3
ag3
ag3
ag3
ag3
ag3
ag3
ag3
ag3
ag3
ag3
ag3
ag3
ag3
ag3
ag3
ag3
ag3
ag3
ag3
ag3
ag3
ag3
ag3
ag3
ag3
ag3
ag3
ag3
ag3
ag3
ag3
ag3
aVdet
p687
aVnsubj
p688
aVprep
p689
aVdet
p690
aVpobj
p691
aVROOT
p692
aVaux
p693
aVxcomp
p694
aVcc
p695
aVconj
p696
aVdobj
p697
aVprep
p698
aVpobj
p699
aVprep
p700
a(lp701
Vand
p702
aValso
p703
aVto
p704
aVenable
p705
aVcommunication
p706
aVbetween
p707
aVthe
p708
aVMalaysian
p709
aVgovernment
p710
aVand
p711
aVthe
p712
aVUNMIK.
p713
ag3
ag3
ag3
ag3
ag3
ag3
ag3
ag3
ag3
ag3
ag3
ag3
ag3
ag3
ag3
ag3
ag3
ag3
ag3
ag3
ag3
ag3
ag3
ag3
ag3
ag3
ag3
ag3
ag3
ag3
ag3
ag3
ag3
ag3
ag3
ag3
ag3
ag3
a(lp714
Vcc
p715
aVadvmod
p716
aVaux
p717
aVconj
p718
aVdobj
p719
aVprep
p720
aVdet
p721
aVamod
p722
aVpobj
p723
aVcc
p724
aVdet
p725
aVconj
p726
ag3
ag3
ag3
ag3
ag3
ag3
ag3
ag3
ag3
ag3
ag3
ag3
ag3
ag3
ag3
ag3
ag3
ag3
ag3
ag3
ag3
ag3
ag3
ag3
ag3
ag3
ag3
ag3
ag3
ag3
ag3
ag3
ag3
ag3
ag3
ag3
ag3
ag3
aI1
tp727
a((lp728
g3
ag3
ag3
ag3
ag3
ag3
ag3
ag3
ag3
ag3
ag3
ag3
ag3
ag3
ag3
ag3
ag3
ag3
ag3
ag3
ag3
ag3
ag3
ag3
ag3
ag3
ag3
ag3
ag3
ag3
ag3
ag3
ag3
ag3
ag3
ag3
ag3
ag3
ag3
ag3
ag3
ag3
ag3
ag3
ag3
ag3
ag3
ag3
ag3
ag3
a(lp729
g3
ag3
ag3
ag3
ag3
ag3
ag3
ag3
ag3
ag3
ag3
ag3
ag3
ag3
ag3
ag3
ag3
ag3
ag3
ag3
ag3
ag3
ag3
ag3
ag3
ag3
ag3
ag3
ag3
ag3
ag3
ag3
ag3
ag3
ag3
ag3
ag3
ag3
ag3
ag3
ag3
ag3
ag3
ag3
ag3
ag3
ag3
ag3
ag3
ag3
a(lp730
V's
p731
aVunification
p732
aVwith
p733
aVAlbania
p734
aVis
p735
aVa
aVpolitical
p736
aVidea
p737
aV,
aVrevived
p738
aVby
p739
aVthe
p740
aVindependence
p741
aVof
p742
aVKosovo
p743
aV.
ag3
ag3
ag3
ag3
ag3
ag3
ag3
ag3
ag3
ag3
ag3
ag3
ag3
ag3
ag3
ag3
ag3
ag3
ag3
ag3
ag3
ag3
ag3
ag3
ag3
ag3
ag3
ag3
ag3
ag3
ag3
ag3
ag3
ag3
a(lp744
Vcase
p745
aVnsubj
p746
aVprep
p747
aVpobj
p748
aVROOT
p749
aVdet
p750
aVamod
p751
aVattr
p752
aVpunct
p753
aVacl
p754
aVagent
p755
aVdet
p756
aVpobj
p757
aVprep
p758
aVpobj
p759
aVpunct
p760
ag3
ag3
ag3
ag3
ag3
ag3
ag3
ag3
ag3
ag3
ag3
ag3
ag3
ag3
ag3
ag3
ag3
ag3
ag3
ag3
ag3
ag3
ag3
ag3
ag3
ag3
ag3
ag3
ag3
ag3
ag3
ag3
ag3
ag3
aI1
tp761
a((lp762
g3
ag3
ag3
ag3
ag3
ag3
ag3
ag3
ag3
ag3
ag3
ag3
ag3
ag3
ag3
ag3
ag3
ag3
ag3
ag3
ag3
ag3
ag3
ag3
ag3
ag3
ag3
ag3
ag3
ag3
ag3
ag3
ag3
ag3
ag3
ag3
ag3
ag3
ag3
aVGeji
p763
aV(
aVGezawa
p764
aV)
aVis
p765
aVa
aVminor
p766
aVChadic
p767
aVdialect
p768
aVcluster
p769
aVof
p770
a(lp771
g3
ag3
ag3
ag3
ag3
ag3
ag3
ag3
ag3
ag3
ag3
ag3
ag3
ag3
ag3
ag3
ag3
ag3
ag3
ag3
ag3
ag3
ag3
ag3
ag3
ag3
ag3
ag3
ag3
ag3
ag3
ag3
ag3
ag3
ag3
ag3
ag3
ag3
ag3
aVnsubj
p772
aVpunct
p773
aVappos
p774
aVpunct
p775
aVROOT
p776
aVdet
p777
aVamod
p778
aVamod
p779
aVcompound
p780
aVattr
p781
aVprep
p782
a(lp783
V.
ag3
ag3
ag3
ag3
ag3
ag3
ag3
ag3
ag3
ag3
ag3
ag3
ag3
ag3
ag3
ag3
ag3
ag3
ag3
ag3
ag3
ag3
ag3
ag3
ag3
ag3
ag3
ag3
ag3
ag3
ag3
ag3
ag3
ag3
ag3
ag3
ag3
ag3
ag3
ag3
ag3
ag3
ag3
ag3
ag3
ag3
ag3
ag3
ag3
a(lp784
Vpunct
p785
ag3
ag3
ag3
ag3
ag3
ag3
ag3
ag3
ag3
ag3
ag3
ag3
ag3
ag3
ag3
ag3
ag3
ag3
ag3
ag3
ag3
ag3
ag3
ag3
ag3
ag3
ag3
ag3
ag3
ag3
ag3
ag3
ag3
ag3
ag3
ag3
ag3
ag3
ag3
ag3
ag3
ag3
ag3
ag3
ag3
ag3
ag3
ag3
ag3
aI1
tp786
a((lp787
g3
ag3
ag3
ag3
ag3
ag3
ag3
ag3
ag3
aVThe
p788
aVmajor
p789
aV(
aVrelative
p790
aV)
aVexceptions
p791
aVare
p792
aVsome
p793
aVpoor
p794
aVcountries
p795
aV,
aVmainly
p796
aVin
p797
aVsub
p798
aV-
aVSaharan
p799
aVAfrica
p800
aVand
p801
aVsome
p802
aVMiddle
p803
aVEastern
p804
aVcountries
p805
aV,
aVwhich
p806
aVare
p807
aVpoor
p808
aVor
p809
aVaffected
p810
aVby
p811
aVgovernment
p812
aVpolicy
p813
aVor
p814
aVcivil
p815
aVstrife
p816
aV,
aVnotably
p817
aVPakistan
p818
aV,
aVPalestinian
p819
aVterritories
p820
aV,
a(lp821
g3
ag3
ag3
ag3
ag3
ag3
ag3
ag3
ag3
aVdet
p822
aVamod
p823
aVpunct
p824
aVamod
p825
aVpunct
p826
aVnsubj
p827
aVROOT
p828
aVdet
p829
aVamod
p830
aVattr
p831
aVpunct
p832
aVadvmod
p833
aVprep
p834
aVcompound
p835
aVpunct
p836
aVcompound
p837
aVpobj
p838
aVcc
p839
aVdet
p840
aVamod
p841
aVamod
p842
aVconj
p843
aVpunct
p844
aVnsubj
p845
aVrelcl
p846
aVacomp
p847
aVcc
p848
aVconj
p849
aVagent
p850
aVcompound
p851
aVpobj
p852
aVcc
p853
aVamod
p854
aVconj
p855
aVpunct
p856
aVadvmod
p857
aVnmod
p858
aVpunct
p859
aVamod
p860
aVconj
p861
aVpunct
p862
a(lp863
V,
aVand
p864
aVAfghanistan
p865
aV.
ag3
ag3
ag3
ag3
ag3
ag3
ag3
ag3
ag3
ag3
ag3
ag3
ag3
ag3
ag3
ag3
ag3
ag3
ag3
ag3
ag3
ag3
ag3
ag3
ag3
ag3
ag3
ag3
ag3
ag3
ag3
ag3
ag3
ag3
ag3
ag3
ag3
ag3
ag3
ag3
ag3
ag3
ag3
ag3
ag3
ag3
a(lp866
Vpunct
p867
aVcc
p868
aVconj
p869
aVpunct
p870
ag3
ag3
ag3
ag3
ag3
ag3
ag3
ag3
ag3
ag3
ag3
ag3
ag3
ag3
ag3
ag3
ag3
ag3
ag3
ag3
ag3
ag3
ag3
ag3
ag3
ag3
ag3
ag3
ag3
ag3
ag3
ag3
ag3
ag3
ag3
ag3
ag3
ag3
ag3
ag3
ag3
ag3
ag3
ag3
ag3
ag3
aI1
tp871
a((lp872
g3
ag3
ag3
ag3
ag3
ag3
ag3
ag3
ag3
ag3
ag3
ag3
ag3
ag3
ag3
ag3
ag3
ag3
ag3
ag3
ag3
ag3
ag3
ag3
ag3
aVFour
p873
aVcities
p874
aVentered
p875
aVbids
p876
aVto
p877
aVhost
p878
aVthe
p879
aVgames
p880
aV:
aVHarbin
p881
aV(
aVChina
p882
aV)
aV,
aVInnsbruck
p883
aV(
aVAustria
p884
aV)
aV,
aVKuopio
p885
aV(
aVFinland
p886
aV)
aV,
aVand
p887
a(lp888
g3
ag3
ag3
ag3
ag3
ag3
ag3
ag3
ag3
ag3
ag3
ag3
ag3
ag3
ag3
ag3
ag3
ag3
ag3
ag3
ag3
ag3
ag3
ag3
ag3
aVnummod
p889
aVnsubj
p890
aVROOT
p891
aVdobj
p892
aVaux
p893
aVacl
p894
aVdet
p895
aVdobj
p896
aVpunct
p897
aVnmod
p898
aVpunct
p899
aVnmod
p900
aVpunct
p901
aVpunct
p902
aVnpadvmod
p903
aVpunct
p904
aVappos
p905
aVpunct
p906
aVpunct
p907
aVappos
p908
aVpunct
p909
aVappos
p910
aVpunct
p911
aVpunct
p912
aVcc
p913
a(lp914
V(
aVNorway
p915
aV)
aV.
ag3
ag3
ag3
ag3
ag3
ag3
ag3
ag3
ag3
ag3
ag3
ag3
ag3
ag3
ag3
ag3
ag3
ag3
ag3
ag3
ag3
ag3
ag3
ag3
ag3
ag3
ag3
ag3
ag3
ag3
ag3
ag3
ag3
ag3
ag3
ag3
ag3
ag3
ag3
ag3
ag3
ag3
ag3
ag3
ag3
ag3
a(lp916
Vpunct
p917
aVappos
p918
aVpunct
p919
aVpunct
p920
ag3
ag3
ag3
ag3
ag3
ag3
ag3
ag3
ag3
ag3
ag3
ag3
ag3
ag3
ag3
ag3
ag3
ag3
ag3
ag3
ag3
ag3
ag3
ag3
ag3
ag3
ag3
ag3
ag3
ag3
ag3
ag3
ag3
ag3
ag3
ag3
ag3
ag3
ag3
ag3
ag3
ag3
ag3
ag3
ag3
ag3
aI1
tp921
a.