(lp1
((lp2
Vthe
p3
aVright
p4
aVof
p5
aVveto
p6
aV,
aVhad
p7
aVbeen
p8
aVincreasingly
p9
aVquestioned
p10
aVby
p11
a(lp12
Vdet
p13
aVappos
p14
aVprep
p15
aVpobj
p16
aVpunct
p17
aVaux
p18
aVauxpass
p19
aVadvmod
p20
aVROOT
p21
aVagent
p22
a(lp23
V0.0
p24
ag24
ag24
ag24
ag24
ag24
ag24
ag24
ag24
ag24
a(lp25
g24
ag24
ag24
ag24
ag24
ag24
ag24
ag24
ag24
ag24
aI1
tp26
a((lp27
Vtwo
p28
aVyears
p29
aVago
p30
aV,
aVthe
p31
aVworld
p32
aV-
aVie
p33
aV,
aVchiefly
p34
a(lp35
Vnummod
p36
aVnpadvmod
p37
aVadvmod
p38
aVpunct
p39
aVdet
p40
aVcompound
p41
aVpunct
p42
aVnsubj
p43
aVpunct
p44
aVROOT
p45
a(lp46
g24
ag24
ag24
ag24
ag24
ag24
ag24
ag24
ag24
ag24
a(lp47
g24
ag24
ag24
ag24
ag24
ag24
ag24
ag24
ag24
ag24
aI1
tp48
a((lp49
g24
ag24
ag24
ag24
ag24
ag24
ag24
ag24
ag24
ag24
a(lp50
g24
ag24
ag24
ag24
ag24
ag24
ag24
ag24
ag24
ag24
a(lp51
Vheld
p52
aVtheir
p53
aVsixth
p54
aVmeeting
p55
aVon
p56
aVthe
p57
aVCambodian
p58
aVproblem
p59
aVon
p60
aVAug.
p61
a(lp62
VROOT
p63
aVposs
p64
aVamod
p65
aVdobj
p66
aVprep
p67
aVdet
p68
aVamod
p69
aVpobj
p70
aVprep
p71
aVpobj
p72
aI1
tp73
a((lp74
Vthe
p75
aVUnited
p76
aVStates
p77
aVto
p78
aVreduce
p79
aVmilitary
p80
aVsupport
p81
aVits
p82
aVregional
p83
aVadversary
p84
a(lp85
Vdet
p86
aVcompound
p87
aVdobj
p88
aVaux
p89
aVxcomp
p90
aVamod
p91
aVdobj
p92
aVposs
p93
aVamod
p94
aVdobj
p95
a(lp96
g24
ag24
ag24
ag24
ag24
ag24
ag24
ag24
ag24
ag24
a(lp97
g24
ag24
ag24
ag24
ag24
ag24
ag24
ag24
ag24
ag24
aI1
tp98
a((lp99
V0.0
p100
aVSome
p101
aVof
p102
aVit
p103
aVwas
p104
aVundoubtedly
p105
aVderived
p106
aVfrom
p107
aVassociations
p108
aVwith
p109
a(lp110
g100
aVnsubjpass
p111
aVprep
p112
aVpobj
p113
aVauxpass
p114
aVadvmod
p115
aVROOT
p116
aVprep
p117
aVpobj
p118
aVprep
p119
a(lp120
g24
ag24
ag24
ag24
ag24
ag24
ag24
ag24
ag24
ag24
a(lp121
g24
ag24
ag24
ag24
ag24
ag24
ag24
ag24
ag24
ag24
aI1
tp122
a((lp123
g100
ag100
ag100
ag100
ag100
ag100
aVFirst
p124
aVto
p125
aVrespond
p126
aVwas
p127
a(lp128
g100
ag100
ag100
ag100
ag100
ag100
aVadvmod
p129
aVaux
p130
aVROOT
p131
aVccomp
p132
a(lp133
g24
ag24
ag24
ag24
ag24
ag24
ag24
ag24
ag24
ag24
a(lp134
g24
ag24
ag24
ag24
ag24
ag24
ag24
ag24
ag24
ag24
aI1
tp135
a((lp136
Vdesigned
p137
aVin
p138
aVthe
p139
aV1930s
p140
aV,
aVits
p141
aVstyle
p142
aVreminiscent
p143
aVof
p144
aVcentury
p145
a(lp146
Vrelcl
p147
aVprep
p148
aVdet
p149
aVpobj
p150
aVpunct
p151
aVposs
p152
aVappos
p153
aVamod
p154
aVprep
p155
aVcompound
p156
a(lp157
g24
ag24
ag24
ag24
ag24
ag24
ag24
ag24
ag24
ag24
a(lp158
g24
ag24
ag24
ag24
ag24
ag24
ag24
ag24
ag24
ag24
aI1
tp159
a((lp160
g100
ag100
ag100
ag100
ag100
ag100
ag100
ag100
aVCountries
p161
aVpaying
p162
a(lp163
g100
ag100
ag100
ag100
ag100
ag100
ag100
ag100
aVnsubj
p164
aVROOT
p165
a(lp166
g24
ag24
ag24
ag24
ag24
ag24
ag24
ag24
ag24
ag24
a(lp167
g24
ag24
ag24
ag24
ag24
ag24
ag24
ag24
ag24
ag24
aI1
tp168
a((lp169
g100
ag100
ag100
ag100
ag100
ag100
ag100
ag100
aVtogether
p170
aVwith
p171
a(lp172
g100
ag100
ag100
ag100
ag100
ag100
ag100
ag100
aVadvmod
p173
aVprep
p174
a(lp175
g24
ag24
ag24
ag24
ag24
ag24
ag24
ag24
ag24
ag24
a(lp176
g24
ag24
ag24
ag24
ag24
ag24
ag24
ag24
ag24
ag24
aI1
tp177
a((lp178
Vfund
p179
aVwas
p180
aVto
p181
aVbe
p182
aVallocated
p183
aVto
p184
aVthe
p185
aVdepressed
p186
aVregions
p187
aVof
p188
a(lp189
Vpobj
p190
aVconj
p191
aVaux
p192
aVauxpass
p193
aVxcomp
p194
aVprep
p195
aVdet
p196
aVamod
p197
aVpobj
p198
aVprep
p199
a(lp200
g24
ag24
ag24
ag24
ag24
ag24
ag24
ag24
ag24
ag24
a(lp201
g24
ag24
ag24
ag24
ag24
ag24
ag24
ag24
ag24
ag24
aI1
tp202
a((lp203
g100
ag100
ag100
ag100
ag100
ag100
ag100
ag100
aVThree
p204
aVcountries
p205
a(lp206
g100
ag100
ag100
ag100
ag100
ag100
ag100
ag100
aVnummod
p207
aVnsubj
p208
a(lp209
g24
ag24
ag24
ag24
ag24
ag24
ag24
ag24
ag24
ag24
a(lp210
g24
ag24
ag24
ag24
ag24
ag24
ag24
ag24
ag24
ag24
aI1
tp211
a((lp212
g24
ag24
ag24
ag24
ag24
ag24
ag24
ag24
ag24
ag24
a(lp213
g24
ag24
ag24
ag24
ag24
ag24
ag24
ag24
ag24
ag24
a(lp214
Vopposed
p215
aVthe
p216
aVdecision
p217
aVand
p218
aVa
aVnumber
p219
aVof
p220
aVother
p221
aVcountries
p222
aVabstained
p223
a(lp224
VROOT
p225
aVdet
p226
aVdobj
p227
aVcc
p228
aVdet
p229
aVnsubj
p230
aVprep
p231
aVamod
p232
aVpobj
p233
aVconj
p234
aI1
tp235
a((lp236
Vor
p237
aVskill
p238
aVin
p239
aVthe
p240
aVrapidly
p241
aVdeveloping
p242
aVscholastic
p243
aVdisciplines
p244
aVof
p245
aVnorthern
p246
a(lp247
Vcc
p248
aVconj
p249
aVprep
p250
aVdet
p251
aVadvmod
p252
aVamod
p253
aVamod
p254
aVpobj
p255
aVprep
p256
aVamod
p257
a(lp258
g24
ag24
ag24
ag24
ag24
ag24
ag24
ag24
ag24
ag24
a(lp259
g24
ag24
ag24
ag24
ag24
ag24
ag24
ag24
ag24
ag24
aI1
tp260
a((lp261
g24
ag24
ag24
ag24
ag24
ag24
ag24
ag24
ag24
ag24
a(lp262
g24
ag24
ag24
ag24
ag24
ag24
ag24
ag24
ag24
ag24
a(lp263
Vwere
p264
aVeffectively
p265
aVSoviet
p266
aVpuppets
p267
aVby
p268
aV1946
p269
aV,
aVbut
p270
aVHungary
p271
aVwas
p272
a(lp273
VROOT
p274
aVadvmod
p275
aVamod
p276
aVattr
p277
aVprep
p278
aVpobj
p279
aVpunct
p280
aVcc
p281
aVnsubjpass
p282
aVauxpass
p283
aI1
tp284
a((lp285
Vcommitments
p286
aVin
p287
aVAugust
p288
aVto
p289
aVthe
p290
aVmultinational
p291
aVforce
p292
aV,
aVapart
p293
aVfrom
p294
a(lp295
Vdobj
p296
aVprep
p297
aVpobj
p298
aVprep
p299
aVdet
p300
aVamod
p301
aVpobj
p302
aVpunct
p303
aVadvmod
p304
aVprep
p305
a(lp306
g24
ag24
ag24
ag24
ag24
ag24
ag24
ag24
ag24
ag24
a(lp307
g24
ag24
ag24
ag24
ag24
ag24
ag24
ag24
ag24
ag24
aI1
tp308
a.