(lp1
((lp2
V0.0
p3
ag3
ag3
ag3
ag3
ag3
ag3
ag3
ag3
ag3
ag3
ag3
ag3
ag3
ag3
ag3
ag3
ag3
ag3
ag3
ag3
ag3
ag3
ag3
ag3
ag3
ag3
ag3
ag3
ag3
ag3
aVTheir
p4
aVprivileges
p5
aVas
p6
aVpermanent
p7
aVSecurity
p8
aVCouncil
p9
aVmembers
p10
aV,
aVespecially
p11
aVthe
p12
aVright
p13
aVof
p14
aVveto
p15
aV,
aVhad
p16
aVbeen
p17
aVincreasingly
p18
aVquestioned
p19
aVby
p20
a(lp21
g3
ag3
ag3
ag3
ag3
ag3
ag3
ag3
ag3
ag3
ag3
ag3
ag3
ag3
ag3
ag3
ag3
ag3
ag3
ag3
ag3
ag3
ag3
ag3
ag3
ag3
ag3
ag3
ag3
ag3
ag3
aVposs
p22
aVnsubjpass
p23
aVprep
p24
aVamod
p25
aVcompound
p26
aVcompound
p27
aVpobj
p28
aVpunct
p29
aVadvmod
p30
aVdet
p31
aVappos
p32
aVprep
p33
aVpobj
p34
aVpunct
p35
aVaux
p36
aVauxpass
p37
aVadvmod
p38
aVROOT
p39
aVagent
p40
a(lp41
Vand
p42
aVJapan
p43
aVwhich
p44
aV,
aVas
p45
aVmajor
p46
aVeconomic
p47
aVpowers
p48
aV,
aVhad
p49
aVallegedly
p50
aVclaimed
p51
aVpermanent
p52
aVmembership
p53
aVof
p54
aVthe
p55
aVCouncil
p56
aV.
ag3
ag3
ag3
ag3
ag3
ag3
ag3
ag3
ag3
ag3
ag3
ag3
ag3
ag3
ag3
ag3
ag3
ag3
ag3
ag3
ag3
ag3
ag3
ag3
ag3
ag3
ag3
ag3
ag3
ag3
ag3
ag3
a(lp57
Vcc
p58
aVconj
p59
aVnsubj
p60
aVpunct
p61
aVprep
p62
aVamod
p63
aVamod
p64
aVpobj
p65
aVpunct
p66
aVaux
p67
aVadvmod
p68
aVadvcl
p69
aVamod
p70
aVdobj
p71
aVprep
p72
aVdet
p73
aVpobj
p74
aVpunct
p75
ag3
ag3
ag3
ag3
ag3
ag3
ag3
ag3
ag3
ag3
ag3
ag3
ag3
ag3
ag3
ag3
ag3
ag3
ag3
ag3
ag3
ag3
ag3
ag3
ag3
ag3
ag3
ag3
ag3
ag3
ag3
ag3
aI1
tp76
a((lp77
g3
ag3
ag3
ag3
ag3
ag3
ag3
ag3
ag3
ag3
ag3
ag3
ag3
ag3
ag3
ag3
ag3
ag3
ag3
ag3
ag3
ag3
ag3
ag3
ag3
ag3
ag3
ag3
aVThough
p78
aVSlovenia
p79
aV,
aVand
p80
aVthen
p81
aVCroatia
p82
aV,
aVbroke
p83
aVaway
p84
aVtwo
p85
aVyears
p86
aVago
p87
aV,
aVthe
p88
aVworld
p89
aV-
aVie
p90
aV,
aVchiefly
p91
aVWestern
p92
aVEurope
p93
aVand
p94
a(lp95
g3
ag3
ag3
ag3
ag3
ag3
ag3
ag3
ag3
ag3
ag3
ag3
ag3
ag3
ag3
ag3
ag3
ag3
ag3
ag3
ag3
ag3
ag3
ag3
ag3
ag3
ag3
ag3
aVprep
p96
aVpobj
p97
aVpunct
p98
aVcc
p99
aVadvmod
p100
aVconj
p101
aVpunct
p102
aVccomp
p103
aVadvmod
p104
aVnummod
p105
aVnpadvmod
p106
aVadvmod
p107
aVpunct
p108
aVdet
p109
aVcompound
p110
aVpunct
p111
aVnsubj
p112
aVpunct
p113
aVROOT
p114
aVcompound
p115
aVdobj
p116
aVcc
p117
a(lp118
V,
aVworking
p119
aVthrough
p120
aVthe
p121
aVUN
p122
aVwith
p123
aVRussian
p124
aVassent
p125
aVand
p126
aVChinese
p127
aVcompliance
p128
aV-
aVdid
p129
aVnot
p130
aVfocus
p131
aVseriously
p132
aVon
p133
aVYugoslavia
p134
aVuntil
p135
aVlast
p136
aVyear
p137
aV.
ag3
ag3
ag3
ag3
ag3
ag3
ag3
ag3
ag3
ag3
ag3
ag3
ag3
ag3
ag3
ag3
ag3
ag3
ag3
ag3
ag3
ag3
ag3
ag3
ag3
ag3
ag3
ag3
a(lp138
Vpunct
p139
aVadvcl
p140
aVprep
p141
aVdet
p142
aVpobj
p143
aVprep
p144
aVamod
p145
aVpobj
p146
aVcc
p147
aVamod
p148
aVcompound
p149
aVpunct
p150
aVaux
p151
aVneg
p152
aVconj
p153
aVadvmod
p154
aVprep
p155
aVpobj
p156
aVprep
p157
aVamod
p158
aVpobj
p159
aVpunct
p160
ag3
ag3
ag3
ag3
ag3
ag3
ag3
ag3
ag3
ag3
ag3
ag3
ag3
ag3
ag3
ag3
ag3
ag3
ag3
ag3
ag3
ag3
ag3
ag3
ag3
ag3
ag3
ag3
aI1
tp161
a((lp162
g3
ag3
ag3
ag3
ag3
ag3
ag3
ag3
ag3
ag3
ag3
ag3
ag3
ag3
ag3
ag3
ag3
ag3
ag3
ag3
ag3
ag3
ag3
ag3
ag3
ag3
ag3
ag3
ag3
ag3
ag3
ag3
ag3
ag3
ag3
ag3
ag3
ag3
aVThe
p163
aVfive
p164
aVpermanent
p165
aVmembers
p166
aVof
p167
aVthe
p168
aVUN
p169
aVSecurity
p170
aVCouncil
p171
aV(
aVFrance
p172
aV,
a(lp173
g3
ag3
ag3
ag3
ag3
ag3
ag3
ag3
ag3
ag3
ag3
ag3
ag3
ag3
ag3
ag3
ag3
ag3
ag3
ag3
ag3
ag3
ag3
ag3
ag3
ag3
ag3
ag3
ag3
ag3
ag3
ag3
ag3
ag3
ag3
ag3
ag3
ag3
aVdet
p174
aVnummod
p175
aVamod
p176
aVnsubj
p177
aVprep
p178
aVdet
p179
aVcompound
p180
aVcompound
p181
aVpobj
p182
aVpunct
p183
aVnmod
p184
aVpunct
p185
a(lp186
V,
aVthe
p187
aVSoviet
p188
aVUnion
p189
aV,
aVthe
p190
aVUnited
p191
aVKingdom
p192
aVand
p193
aVthe
p194
aVUnited
p195
aVStates
p196
aV)
aVheld
p197
aVtheir
p198
aVsixth
p199
aVmeeting
p200
aVon
p201
aVthe
p202
aVCambodian
p203
aVproblem
p204
aVon
p205
aVAug.
p206
aV27
p207
aV-
aV28
p208
aVand
p209
aVworked
p210
aVout
p211
aVa
aVpossible
p212
aVframework
p213
aVfor
p214
aVa
aVsolution
p215
aV.
ag3
ag3
ag3
ag3
ag3
ag3
ag3
ag3
ag3
ag3
ag3
ag3
ag3
ag3
a(lp216
Vpunct
p217
aVdet
p218
aVcompound
p219
aVconj
p220
aVpunct
p221
aVdet
p222
aVcompound
p223
aVconj
p224
aVcc
p225
aVdet
p226
aVcompound
p227
aVconj
p228
aVpunct
p229
aVROOT
p230
aVposs
p231
aVamod
p232
aVdobj
p233
aVprep
p234
aVdet
p235
aVamod
p236
aVpobj
p237
aVprep
p238
aVpobj
p239
aVnummod
p240
aVpunct
p241
aVnummod
p242
aVcc
p243
aVconj
p244
aVprt
p245
aVdet
p246
aVamod
p247
aVdobj
p248
aVprep
p249
aVdet
p250
aVpobj
p251
aVpunct
p252
ag3
ag3
ag3
ag3
ag3
ag3
ag3
ag3
ag3
ag3
ag3
ag3
ag3
ag3
aI1
tp253
a((lp254
g3
ag3
ag3
ag3
ag3
ag3
ag3
ag3
ag3
ag3
ag3
ag3
ag3
ag3
ag3
ag3
ag3
ag3
ag3
ag3
ag3
aVThere
p255
aVare
p256
aValso
p257
aVthe
p258
aVlongstanding
p259
aVTurkish
p260
aVobjectives
p261
aVof
p262
aVresolving
p263
aVthe
p264
aVCyprus
p265
aVconflict
p266
aVto
p267
aVits
p268
aVadvantage
p269
aVand
p270
aVof
p271
aVforcing
p272
aVthe
p273
aVUnited
p274
aVStates
p275
aVto
p276
aVreduce
p277
aVmilitary
p278
aVsupport
p279
aVits
p280
aVregional
p281
aVadversary
p282
aV,
a(lp283
g3
ag3
ag3
ag3
ag3
ag3
ag3
ag3
ag3
ag3
ag3
ag3
ag3
ag3
ag3
ag3
ag3
ag3
ag3
ag3
ag3
aVexpl
p284
aVROOT
p285
aVadvmod
p286
aVdet
p287
aVamod
p288
aVamod
p289
aVattr
p290
aVprep
p291
aVpcomp
p292
aVdet
p293
aVcompound
p294
aVdobj
p295
aVprep
p296
aVposs
p297
aVpobj
p298
aVcc
p299
aVconj
p300
aVpcomp
p301
aVdet
p302
aVcompound
p303
aVdobj
p304
aVaux
p305
aVxcomp
p306
aVamod
p307
aVdobj
p308
aVposs
p309
aVamod
p310
aVdobj
p311
aVpunct
p312
a(lp313
V.
ag3
ag3
ag3
ag3
ag3
ag3
ag3
ag3
ag3
ag3
ag3
ag3
ag3
ag3
ag3
ag3
ag3
ag3
ag3
ag3
ag3
ag3
ag3
ag3
ag3
ag3
ag3
ag3
ag3
ag3
ag3
ag3
ag3
ag3
ag3
ag3
ag3
ag3
ag3
ag3
ag3
ag3
ag3
ag3
ag3
ag3
ag3
ag3
ag3
a(lp314
Vpunct
p315
ag3
ag3
ag3
ag3
ag3
ag3
ag3
ag3
ag3
ag3
ag3
ag3
ag3
ag3
ag3
ag3
ag3
ag3
ag3
ag3
ag3
ag3
ag3
ag3
ag3
ag3
ag3
ag3
ag3
ag3
ag3
ag3
ag3
ag3
ag3
ag3
ag3
ag3
ag3
ag3
ag3
ag3
ag3
ag3
ag3
ag3
ag3
ag3
ag3
aI1
tp316
a((lp317
g3
ag3
ag3
ag3
ag3
ag3
ag3
ag3
ag3
ag3
ag3
ag3
ag3
ag3
ag3
ag3
ag3
ag3
ag3
ag3
ag3
ag3
ag3
ag3
ag3
ag3
ag3
ag3
ag3
ag3
ag3
ag3
ag3
ag3
ag3
ag3
ag3
ag3
ag3
ag3
ag3
aVSome
p318
aVof
p319
aVit
p320
aVwas
p321
aVundoubtedly
p322
aVderived
p323
aVfrom
p324
aVassociations
p325
aVwith
p326
a(lp327
g3
ag3
ag3
ag3
ag3
ag3
ag3
ag3
ag3
ag3
ag3
ag3
ag3
ag3
ag3
ag3
ag3
ag3
ag3
ag3
ag3
ag3
ag3
ag3
ag3
ag3
ag3
ag3
ag3
ag3
ag3
ag3
ag3
ag3
ag3
ag3
ag3
ag3
ag3
ag3
ag3
aVnsubjpass
p328
aVprep
p329
aVpobj
p330
aVauxpass
p331
aVadvmod
p332
aVROOT
p333
aVprep
p334
aVpobj
p335
aVprep
p336
a(lp337
V,
aVwhere
p338
aVgraveyards
p339
aVabounded
p340
aVin
p341
aVminiature
p342
aVpagodas
p343
aVand
p344
aVobelisks
p345
aV.
ag3
ag3
ag3
ag3
ag3
ag3
ag3
ag3
ag3
ag3
ag3
ag3
ag3
ag3
ag3
ag3
ag3
ag3
ag3
ag3
ag3
ag3
ag3
ag3
ag3
ag3
ag3
ag3
ag3
ag3
ag3
ag3
ag3
ag3
ag3
ag3
ag3
ag3
ag3
ag3
a(lp346
Vpunct
p347
aVnmod
p348
aVconj
p349
aVacl
p350
aVprep
p351
aVamod
p352
aVpobj
p353
aVcc
p354
aVconj
p355
aVpunct
p356
ag3
ag3
ag3
ag3
ag3
ag3
ag3
ag3
ag3
ag3
ag3
ag3
ag3
ag3
ag3
ag3
ag3
ag3
ag3
ag3
ag3
ag3
ag3
ag3
ag3
ag3
ag3
ag3
ag3
ag3
ag3
ag3
ag3
ag3
ag3
ag3
ag3
ag3
ag3
ag3
aI1
tp357
a((lp358
g3
ag3
ag3
ag3
ag3
ag3
ag3
ag3
ag3
ag3
ag3
ag3
ag3
ag3
ag3
aVFirst
p359
aVto
p360
aVrespond
p361
aVwas
p362
aVNehru
p363
aV,
aVwho
p364
aVconvened
p365
aVa
aVconference
p366
aVof
p367
aVPacific
p368
aVand
p369
aVIndian
p370
aVOcean
p371
aVstates
p372
aV,
aVincluding
p373
aVEgypt
p374
aV,
aVEthiopia
p375
aV,
aVthe
p376
aVPhilippines
p377
aV,
aVAustralia
p378
aVand
p379
aVNew
p380
aVZealand
p381
aV,
aVbut
p382
aVnot
p383
aVBritain
p384
aVor
p385
aVthe
p386
a(lp387
g3
ag3
ag3
ag3
ag3
ag3
ag3
ag3
ag3
ag3
ag3
ag3
ag3
ag3
ag3
aVadvmod
p388
aVaux
p389
aVROOT
p390
aVccomp
p391
aVacomp
p392
aVpunct
p393
aVnsubj
p394
aVrelcl
p395
aVdet
p396
aVdobj
p397
aVprep
p398
aVpobj
p399
aVcc
p400
aVamod
p401
aVcompound
p402
aVconj
p403
aVpunct
p404
aVprep
p405
aVpobj
p406
aVpunct
p407
aVconj
p408
aVpunct
p409
aVdet
p410
aVconj
p411
aVpunct
p412
aVconj
p413
aVcc
p414
aVcompound
p415
aVconj
p416
aVpunct
p417
aVcc
p418
aVneg
p419
aVconj
p420
aVcc
p421
aVdet
p422
a(lp423
V.
ag3
ag3
ag3
ag3
ag3
ag3
ag3
ag3
ag3
ag3
ag3
ag3
ag3
ag3
ag3
ag3
ag3
ag3
ag3
ag3
ag3
ag3
ag3
ag3
ag3
ag3
ag3
ag3
ag3
ag3
ag3
ag3
ag3
ag3
ag3
ag3
ag3
ag3
ag3
ag3
ag3
ag3
ag3
ag3
ag3
ag3
ag3
ag3
ag3
a(lp424
Vpunct
p425
ag3
ag3
ag3
ag3
ag3
ag3
ag3
ag3
ag3
ag3
ag3
ag3
ag3
ag3
ag3
ag3
ag3
ag3
ag3
ag3
ag3
ag3
ag3
ag3
ag3
ag3
ag3
ag3
ag3
ag3
ag3
ag3
ag3
ag3
ag3
ag3
ag3
ag3
ag3
ag3
ag3
ag3
ag3
ag3
ag3
ag3
ag3
ag3
ag3
aI1
tp426
a((lp427
g3
ag3
ag3
ag3
ag3
ag3
ag3
ag3
ag3
ag3
ag3
ag3
ag3
ag3
ag3
ag3
ag3
ag3
ag3
ag3
aVHe
p428
aVretired
p429
aVto
p430
aVthe
p431
aVstriking
p432
aVhill
p433
aV-
aVtop
p434
aVhouse
p435
aV(
aVin
p436
aVMonkton
p437
aVDeverill
p438
aV,
aVWiltshire
p439
aV)
aVhe
p440
aVhad
p441
aVdesigned
p442
aVin
p443
aVthe
p444
aV1930s
p445
aV,
aVits
p446
aVstyle
p447
aVreminiscent
p448
aVof
p449
aVseventeenth
p450
aV-
aVcentury
p451
a(lp452
g3
ag3
ag3
ag3
ag3
ag3
ag3
ag3
ag3
ag3
ag3
ag3
ag3
ag3
ag3
ag3
ag3
ag3
ag3
ag3
aVnsubj
p453
aVROOT
p454
aVprep
p455
aVdet
p456
aVamod
p457
aVcompound
p458
aVpunct
p459
aVamod
p460
aVpobj
p461
aVpunct
p462
aVprep
p463
aVcompound
p464
aVpobj
p465
aVpunct
p466
aVappos
p467
aVpunct
p468
aVnsubj
p469
aVaux
p470
aVrelcl
p471
aVprep
p472
aVdet
p473
aVpobj
p474
aVpunct
p475
aVposs
p476
aVappos
p477
aVamod
p478
aVprep
p479
aVamod
p480
aVpunct
p481
aVcompound
p482
a(lp483
V.
ag3
ag3
ag3
ag3
ag3
ag3
ag3
ag3
ag3
ag3
ag3
ag3
ag3
ag3
ag3
ag3
ag3
ag3
ag3
ag3
ag3
ag3
ag3
ag3
ag3
ag3
ag3
ag3
ag3
ag3
ag3
ag3
ag3
ag3
ag3
ag3
ag3
ag3
ag3
ag3
ag3
ag3
ag3
ag3
ag3
ag3
ag3
ag3
ag3
a(lp484
Vpunct
p485
ag3
ag3
ag3
ag3
ag3
ag3
ag3
ag3
ag3
ag3
ag3
ag3
ag3
ag3
ag3
ag3
ag3
ag3
ag3
ag3
ag3
ag3
ag3
ag3
ag3
ag3
ag3
ag3
ag3
ag3
ag3
ag3
ag3
ag3
ag3
ag3
ag3
ag3
ag3
ag3
ag3
ag3
ag3
ag3
ag3
ag3
ag3
ag3
ag3
aI1
tp486
a((lp487
g3
ag3
ag3
ag3
ag3
ag3
ag3
ag3
ag3
ag3
ag3
ag3
ag3
ag3
ag3
ag3
ag3
ag3
aVCountries
p488
aVpaying
p489
aVmoney
p490
aVto
p491
aVusers
p492
aVof
p493
aVcontraception
p494
aV:
aVBANGLADESH
p495
aV,
aVEGYPT
p496
aV,
aVINDIA
p497
aV,
aVINDONESIA
p498
aV,
aVMALAYSIA
p499
aV,
aVMAURITIUS
p500
aV,
aVNEPAL
p501
aV,
aVSOUTH
p502
aVKOREA
p503
aV,
aVSRI
p504
aVLANKA
p505
aV,
aVTHAILAND
p506
aV,
aVTUNISIA
p507
aV,
a(lp508
g3
ag3
ag3
ag3
ag3
ag3
ag3
ag3
ag3
ag3
ag3
ag3
ag3
ag3
ag3
ag3
ag3
ag3
aVnsubj
p509
aVROOT
p510
aVdobj
p511
aVdative
p512
aVpobj
p513
aVprep
p514
aVpobj
p515
aVpunct
p516
aVdobj
p517
aVpunct
p518
aVconj
p519
aVpunct
p520
aVconj
p521
aVpunct
p522
aVconj
p523
aVpunct
p524
aVconj
p525
aVpunct
p526
aVconj
p527
aVpunct
p528
aVconj
p529
aVpunct
p530
aVcompound
p531
aVconj
p532
aVpunct
p533
aVcompound
p534
aVconj
p535
aVpunct
p536
aVconj
p537
aVpunct
p538
aVconj
p539
aVpunct
p540
a(lp541
g3
ag3
ag3
ag3
ag3
ag3
ag3
ag3
ag3
ag3
ag3
ag3
ag3
ag3
ag3
ag3
ag3
ag3
ag3
ag3
ag3
ag3
ag3
ag3
ag3
ag3
ag3
ag3
ag3
ag3
ag3
ag3
ag3
ag3
ag3
ag3
ag3
ag3
ag3
ag3
ag3
ag3
ag3
ag3
ag3
ag3
ag3
ag3
ag3
ag3
a(lp542
g3
ag3
ag3
ag3
ag3
ag3
ag3
ag3
ag3
ag3
ag3
ag3
ag3
ag3
ag3
ag3
ag3
ag3
ag3
ag3
ag3
ag3
ag3
ag3
ag3
ag3
ag3
ag3
ag3
ag3
ag3
ag3
ag3
ag3
ag3
ag3
ag3
ag3
ag3
ag3
ag3
ag3
ag3
ag3
ag3
ag3
ag3
ag3
ag3
ag3
aI1
tp543
a((lp544
g3
ag3
ag3
ag3
ag3
ag3
ag3
ag3
ag3
ag3
ag3
ag3
ag3
ag3
ag3
ag3
ag3
ag3
ag3
ag3
ag3
ag3
ag3
ag3
ag3
ag3
ag3
ag3
ag3
ag3
ag3
ag3
ag3
ag3
ag3
ag3
ag3
ag3
ag3
ag3
ag3
ag3
ag3
ag3
ag3
ag3
aVtogether
p545
aVwith
p546
aVEgypt
p547
aVand
p548
a(lp549
g3
ag3
ag3
ag3
ag3
ag3
ag3
ag3
ag3
ag3
ag3
ag3
ag3
ag3
ag3
ag3
ag3
ag3
ag3
ag3
ag3
ag3
ag3
ag3
ag3
ag3
ag3
ag3
ag3
ag3
ag3
ag3
ag3
ag3
ag3
ag3
ag3
ag3
ag3
ag3
ag3
ag3
ag3
ag3
ag3
ag3
aVadvmod
p550
aVprep
p551
aVpobj
p552
aVcc
p553
a(lp554
V)
aVto
p555
aVsend
p556
aVtroops
p557
aVto
p558
aVthe
p559
aVpan
p560
aV-
aVArab
p561
aVforce
p562
aVto
p563
aVdefend
p564
aVSaudi
p565
aVArabia
p566
aV;
aVsome
p567
aV1,200
p568
aVMoroccan
p569
aVtroops
p570
aVreportedly
p571
aVarrived
p572
aVin
p573
aVRiyadh
p574
aVon
p575
aVAug.
p576
aV12
p577
aV.
ag3
ag3
ag3
ag3
ag3
ag3
ag3
ag3
ag3
ag3
ag3
ag3
ag3
ag3
ag3
ag3
ag3
ag3
ag3
ag3
ag3
ag3
ag3
a(lp578
Vpunct
p579
aVaux
p580
aVxcomp
p581
aVdobj
p582
aVprep
p583
aVdet
p584
aVcompound
p585
aVpunct
p586
aVamod
p587
aVpobj
p588
aVaux
p589
aVadvcl
p590
aVcompound
p591
aVdobj
p592
aVpunct
p593
aVquantmod
p594
aVnummod
p595
aVamod
p596
aVnsubj
p597
aVadvmod
p598
aVROOT
p599
aVprep
p600
aVpobj
p601
aVprep
p602
aVpobj
p603
aVnummod
p604
aVpunct
p605
ag3
ag3
ag3
ag3
ag3
ag3
ag3
ag3
ag3
ag3
ag3
ag3
ag3
ag3
ag3
ag3
ag3
ag3
ag3
ag3
ag3
ag3
ag3
aI1
tp606
a((lp607
g3
ag3
ag3
ag3
ag3
ag3
ag3
ag3
ag3
ag3
ag3
ag3
aVThe
p608
aVnew
p609
aVproblem
p610
aVof
p611
aVyouth
p612
aVunemployment
p613
aVwas
p614
aVto
p615
aVreceive
p616
aV75
p617
aVper
p618
aVcent
p619
aVof
p620
aVthe
p621
aVESF
p622
aV,
aVand
p623
aV40
p624
aVper
p625
aVcent
p626
aVof
p627
aVthe
p628
aVremaining
p629
aVgeneral
p630
aVfund
p631
aVwas
p632
aVto
p633
aVbe
p634
aVallocated
p635
aVto
p636
aVthe
p637
aVdepressed
p638
aVregions
p639
aVof
p640
aVthe
p641
aVCommunity
p642
aV-
aVi.e.
p643
a(lp644
g3
ag3
ag3
ag3
ag3
ag3
ag3
ag3
ag3
ag3
ag3
ag3
aVdet
p645
aVamod
p646
aVnsubj
p647
aVprep
p648
aVcompound
p649
aVpobj
p650
aVROOT
p651
aVaux
p652
aVxcomp
p653
aVnummod
p654
aVcompound
p655
aVdobj
p656
aVprep
p657
aVdet
p658
aVpobj
p659
aVpunct
p660
aVcc
p661
aVnummod
p662
aVcompound
p663
aVconj
p664
aVprep
p665
aVdet
p666
aVamod
p667
aVamod
p668
aVpobj
p669
aVconj
p670
aVaux
p671
aVauxpass
p672
aVxcomp
p673
aVprep
p674
aVdet
p675
aVamod
p676
aVpobj
p677
aVprep
p678
aVdet
p679
aVcompound
p680
aVpunct
p681
aVadvmod
p682
a(lp683
V,
aVNorthern
p684
aVIreland
p685
aV,
aVIrish
p686
aVRepublic
p687
aV,
aVMezzogiorno
p688
aV.
ag3
ag3
ag3
ag3
ag3
ag3
ag3
ag3
ag3
ag3
ag3
ag3
ag3
ag3
ag3
ag3
ag3
ag3
ag3
ag3
ag3
ag3
ag3
ag3
ag3
ag3
ag3
ag3
ag3
ag3
ag3
ag3
ag3
ag3
ag3
ag3
ag3
ag3
ag3
ag3
ag3
a(lp689
Vpunct
p690
aVcompound
p691
aVappos
p692
aVpunct
p693
aVcompound
p694
aVconj
p695
aVpunct
p696
aVconj
p697
aVpunct
p698
ag3
ag3
ag3
ag3
ag3
ag3
ag3
ag3
ag3
ag3
ag3
ag3
ag3
ag3
ag3
ag3
ag3
ag3
ag3
ag3
ag3
ag3
ag3
ag3
ag3
ag3
ag3
ag3
ag3
ag3
ag3
ag3
ag3
ag3
ag3
ag3
ag3
ag3
ag3
ag3
ag3
aI1
tp699
a((lp700
g3
ag3
ag3
ag3
ag3
ag3
ag3
ag3
ag3
ag3
ag3
ag3
ag3
ag3
ag3
ag3
ag3
ag3
ag3
ag3
ag3
ag3
ag3
ag3
ag3
ag3
ag3
ag3
ag3
ag3
ag3
ag3
ag3
ag3
ag3
ag3
ag3
ag3
ag3
ag3
ag3
ag3
ag3
ag3
ag3
aVThree
p701
aVcountries
p702
aV-
aVDenmark
p703
aV,
a(lp704
g3
ag3
ag3
ag3
ag3
ag3
ag3
ag3
ag3
ag3
ag3
ag3
ag3
ag3
ag3
ag3
ag3
ag3
ag3
ag3
ag3
ag3
ag3
ag3
ag3
ag3
ag3
ag3
ag3
ag3
ag3
ag3
ag3
ag3
ag3
ag3
ag3
ag3
ag3
ag3
ag3
ag3
ag3
ag3
ag3
aVnummod
p705
aVnsubj
p706
aVpunct
p707
aVappos
p708
aVpunct
p709
a(lp710
Vand
p711
aVBelgium
p712
aV-
aVmeanwhile
p713
aVindicated
p714
aVyesterday
p715
aVthat
p716
aVthey
p717
aVremain
p718
aVopposed
p719
aVto
p720
aVanother
p721
aVkey
p722
aVelement
p723
aV,
aVwhich
p724
aVforsees
p725
aVthe
p726
aVabolition
p727
aVof
p728
aVall
p729
aVlimits
p730
aVon
p731
aVtax
p732
aV-
aVpaid
p733
aVgoods
p734
aVthat
p735
aVcan
p736
aVbe
p737
aVcarried
p738
aVacross
p739
aVborders
p740
aVby
p741
aVprivate
p742
aVtravellers
p743
aV.
ag3
ag3
ag3
ag3
ag3
ag3
ag3
ag3
ag3
ag3
ag3
ag3
ag3
a(lp744
Vcc
p745
aVconj
p746
aVpunct
p747
aVadvmod
p748
aVROOT
p749
aVnpadvmod
p750
aVmark
p751
aVnsubj
p752
aVccomp
p753
aVacomp
p754
aVprep
p755
aVdet
p756
aVamod
p757
aVpobj
p758
aVpunct
p759
aVnsubj
p760
aVrelcl
p761
aVdet
p762
aVdobj
p763
aVprep
p764
aVdet
p765
aVpobj
p766
aVprep
p767
aVnpadvmod
p768
aVpunct
p769
aVamod
p770
aVpobj
p771
aVnsubjpass
p772
aVaux
p773
aVauxpass
p774
aVrelcl
p775
aVprep
p776
aVpobj
p777
aVagent
p778
aVamod
p779
aVpobj
p780
aVpunct
p781
ag3
ag3
ag3
ag3
ag3
ag3
ag3
ag3
ag3
ag3
ag3
ag3
ag3
aI1
tp782
a((lp783
g3
ag3
ag3
ag3
ag3
ag3
ag3
ag3
ag3
ag3
ag3
ag3
ag3
ag3
ag3
ag3
ag3
ag3
ag3
ag3
ag3
ag3
ag3
ag3
ag3
ag3
ag3
ag3
ag3
ag3
ag3
ag3
ag3
ag3
ag3
ag3
ag3
ag3
ag3
ag3
ag3
ag3
ag3
ag3
ag3
ag3
ag3
ag3
aVCanada
p784
aV,
a(lp785
g3
ag3
ag3
ag3
ag3
ag3
ag3
ag3
ag3
ag3
ag3
ag3
ag3
ag3
ag3
ag3
ag3
ag3
ag3
ag3
ag3
ag3
ag3
ag3
ag3
ag3
ag3
ag3
ag3
ag3
ag3
ag3
ag3
ag3
ag3
ag3
ag3
ag3
ag3
ag3
ag3
ag3
ag3
ag3
ag3
ag3
ag3
ag3
aVnsubj
p786
aVpunct
p787
a(lp788
Vand
p789
aVeleven
p790
aVother
p791
aVmembers
p792
aVof
p793
aVthe
p794
aVInterim
p795
aVCommittee
p796
aVopposed
p797
aVthe
p798
aVdecision
p799
aVand
p800
aVa
aVnumber
p801
aVof
p802
aVother
p803
aVcountries
p804
aVabstained
p805
aV.
ag3
ag3
ag3
ag3
ag3
ag3
ag3
ag3
ag3
ag3
ag3
ag3
ag3
ag3
ag3
ag3
ag3
ag3
ag3
ag3
ag3
ag3
ag3
ag3
ag3
ag3
ag3
ag3
ag3
ag3
ag3
a(lp806
Vcc
p807
aVnummod
p808
aVamod
p809
aVconj
p810
aVprep
p811
aVdet
p812
aVcompound
p813
aVpobj
p814
aVROOT
p815
aVdet
p816
aVdobj
p817
aVcc
p818
aVdet
p819
aVnsubj
p820
aVprep
p821
aVamod
p822
aVpobj
p823
aVconj
p824
aVpunct
p825
ag3
ag3
ag3
ag3
ag3
ag3
ag3
ag3
ag3
ag3
ag3
ag3
ag3
ag3
ag3
ag3
ag3
ag3
ag3
ag3
ag3
ag3
ag3
ag3
ag3
ag3
ag3
ag3
ag3
ag3
ag3
aI1
tp826
a((lp827
g3
ag3
ag3
ag3
ag3
ag3
ag3
ag3
ag3
ag3
ag3
ag3
ag3
ag3
ag3
ag3
ag3
ag3
ag3
ag3
ag3
ag3
ag3
ag3
ag3
ag3
aVMoreover
p828
aV,
aVin
p829
aVnone
p830
aVof
p831
aVthese
p832
aVsurviving
p833
aVvolumes
p834
aVis
p835
aVthere
p836
aVany
p837
aVsign
p838
aVof
p839
aVinterest
p840
aVor
p841
aVskill
p842
aVin
p843
aVthe
p844
aVrapidly
p845
aVdeveloping
p846
aVscholastic
p847
aVdisciplines
p848
aVof
p849
aVnorthern
p850
a(lp851
g3
ag3
ag3
ag3
ag3
ag3
ag3
ag3
ag3
ag3
ag3
ag3
ag3
ag3
ag3
ag3
ag3
ag3
ag3
ag3
ag3
ag3
ag3
ag3
ag3
ag3
aVadvmod
p852
aVpunct
p853
aVprep
p854
aVpobj
p855
aVprep
p856
aVdet
p857
aVamod
p858
aVpobj
p859
aVROOT
p860
aVexpl
p861
aVdet
p862
aVattr
p863
aVprep
p864
aVpobj
p865
aVcc
p866
aVconj
p867
aVprep
p868
aVdet
p869
aVadvmod
p870
aVamod
p871
aVamod
p872
aVpobj
p873
aVprep
p874
aVamod
p875
a(lp876
Vand
p877
aVLorraine
p878
aVat
p879
aVthis
p880
aVtime
p881
aV.
ag3
ag3
ag3
ag3
ag3
ag3
ag3
ag3
ag3
ag3
ag3
ag3
ag3
ag3
ag3
ag3
ag3
ag3
ag3
ag3
ag3
ag3
ag3
ag3
ag3
ag3
ag3
ag3
ag3
ag3
ag3
ag3
ag3
ag3
ag3
ag3
ag3
ag3
ag3
ag3
ag3
ag3
ag3
ag3
a(lp882
Vcc
p883
aVconj
p884
aVprep
p885
aVdet
p886
aVpobj
p887
aVpunct
p888
ag3
ag3
ag3
ag3
ag3
ag3
ag3
ag3
ag3
ag3
ag3
ag3
ag3
ag3
ag3
ag3
ag3
ag3
ag3
ag3
ag3
ag3
ag3
ag3
ag3
ag3
ag3
ag3
ag3
ag3
ag3
ag3
ag3
ag3
ag3
ag3
ag3
ag3
ag3
ag3
ag3
ag3
ag3
ag3
aI1
tp889
a((lp890
g3
ag3
ag3
ag3
ag3
ag3
ag3
ag3
ag3
ag3
ag3
ag3
ag3
ag3
ag3
ag3
ag3
ag3
ag3
ag3
ag3
ag3
ag3
ag3
ag3
ag3
ag3
ag3
ag3
ag3
ag3
ag3
ag3
ag3
ag3
ag3
aVThe
p891
aVpace
p892
aVof
p893
aVchange
p894
aVdiffered
p895
aVfrom
p896
aVcountry
p897
aVto
p898
aVcountry
p899
aV:
aVPoland
p900
aV,
aVRomania
p901
aVand
p902
a(lp903
g3
ag3
ag3
ag3
ag3
ag3
ag3
ag3
ag3
ag3
ag3
ag3
ag3
ag3
ag3
ag3
ag3
ag3
ag3
ag3
ag3
ag3
ag3
ag3
ag3
ag3
ag3
ag3
ag3
ag3
ag3
ag3
ag3
ag3
ag3
ag3
aVdet
p904
aVnsubj
p905
aVprep
p906
aVpobj
p907
aVccomp
p908
aVprep
p909
aVpobj
p910
aVprep
p911
aVpobj
p912
aVpunct
p913
aVnsubj
p914
aVpunct
p915
aVconj
p916
aVcc
p917
a(lp918
Vwere
p919
aVeffectively
p920
aVSoviet
p921
aVpuppets
p922
aVby
p923
aV1946
p924
aV,
aVbut
p925
aVHungary
p926
aVwas
p927
aVonly
p928
aVbrought
p929
aVunder
p930
aVMoscow
p931
aV's
p932
aVcontrol
p933
aVin
p934
aVmid-1947
p935
aVand
p936
aVa
aVcoalition
p937
aVgovernment
p938
aVsurvived
p939
aVin
p940
aVCzechoslovakia
p941
aVuntil
p942
aVFebruary
p943
aV1948
p944
aV.
ag3
ag3
ag3
ag3
ag3
ag3
ag3
ag3
ag3
ag3
ag3
ag3
ag3
ag3
ag3
ag3
ag3
ag3
ag3
ag3
ag3
a(lp945
VROOT
p946
aVadvmod
p947
aVamod
p948
aVattr
p949
aVprep
p950
aVpobj
p951
aVpunct
p952
aVcc
p953
aVnsubjpass
p954
aVauxpass
p955
aVadvmod
p956
aVconj
p957
aVprep
p958
aVposs
p959
aVcase
p960
aVpobj
p961
aVprep
p962
aVpobj
p963
aVcc
p964
aVdet
p965
aVcompound
p966
aVnsubj
p967
aVconj
p968
aVprep
p969
aVpobj
p970
aVprep
p971
aVpobj
p972
aVnummod
p973
aVpunct
p974
ag3
ag3
ag3
ag3
ag3
ag3
ag3
ag3
ag3
ag3
ag3
ag3
ag3
ag3
ag3
ag3
ag3
ag3
ag3
ag3
ag3
aI1
tp975
a((lp976
g3
ag3
ag3
ag3
ag3
ag3
ag3
ag3
ag3
ag3
ag3
ag3
ag3
ag3
ag3
ag3
ag3
ag3
ag3
ag3
ag3
ag3
ag3
ag3
ag3
ag3
ag3
ag3
ag3
ag3
ag3
ag3
ag3
ag3
ag3
ag3
ag3
aVCountries
p977
aVmaking
p978
aVcommitments
p979
aVin
p980
aVAugust
p981
aVto
p982
aVthe
p983
aVmultinational
p984
aVforce
p985
aV,
aVapart
p986
aVfrom
p987
aVthe
p988
a(lp989
g3
ag3
ag3
ag3
ag3
ag3
ag3
ag3
ag3
ag3
ag3
ag3
ag3
ag3
ag3
ag3
ag3
ag3
ag3
ag3
ag3
ag3
ag3
ag3
ag3
ag3
ag3
ag3
ag3
ag3
ag3
ag3
ag3
ag3
ag3
ag3
ag3
aVnsubj
p990
aVacl
p991
aVdobj
p992
aVprep
p993
aVpobj
p994
aVprep
p995
aVdet
p996
aVamod
p997
aVpobj
p998
aVpunct
p999
aVadvmod
p1000
aVprep
p1001
aVdet
p1002
a(lp1003
Vand
p1004
aVthose
p1005
aVEuropean
p1006
aVand
p1007
aVArab
p1008
aVcountries
p1009
aVas
p1010
aVdescribed
p1011
aVabove
p1012
aV,
aVincluded
p1013
aV(
aVi
aV)
aVCanada
p1014
aV,
aVa
aVNATO
p1015
aVmember
p1016
aVcountry
p1017
aV,
aVwhich
p1018
aVannounced
p1019
aVon
p1020
aVAug.
p1021
aV10
p1022
aVthat
p1023
aVit
p1024
aVwould
p1025
aVsend
p1026
aVtwo
p1027
aVdestroyers
p1028
aVand
p1029
aVa
aVsupply
p1030
aVship
p1031
aV,
aVto
p1032
aVarrive
p1033
aVby
p1034
aVSeptember
p1035
aV;
aV(
aVii
p1036
aV)
aVAustralia
p1037
aV,
aVwhose
p1038
aVPrime
p1039
aVMinister
p1040
a(lp1041
Vcc
p1042
aVdet
p1043
aVamod
p1044
aVcc
p1045
aVconj
p1046
aVconj
p1047
aVmark
p1048
aVadvcl
p1049
aVprep
p1050
aVpunct
p1051
aVROOT
p1052
aVpunct
p1053
aVdobj
p1054
aVpunct
p1055
aVnsubj
p1056
aVpunct
p1057
aVdet
p1058
aVcompound
p1059
aVcompound
p1060
aVappos
p1061
aVpunct
p1062
aVnsubj
p1063
aVrelcl
p1064
aVprep
p1065
aVpobj
p1066
aVnummod
p1067
aVmark
p1068
aVnsubj
p1069
aVaux
p1070
aVccomp
p1071
aVnummod
p1072
aVdobj
p1073
aVcc
p1074
aVdet
p1075
aVcompound
p1076
aVconj
p1077
aVpunct
p1078
aVaux
p1079
aVadvcl
p1080
aVprep
p1081
aVpobj
p1082
aVpunct
p1083
aVpunct
p1084
aVparataxis
p1085
aVpunct
p1086
aVappos
p1087
aVpunct
p1088
aVposs
p1089
aVcompound
p1090
aVcompound
p1091
aI1
tp1092
a.